---
triple:          'arm64-apple-darwin'
binary-path:     zombbb_debug
relocations:
  - { offsetInCU: 0x39, offset: 0x39, size: 0x8, addend: 0x0, symName: __ZN8P2random2mtE, symObjAddr: 0x48A20, symBinAddr: 0x1000D93E0, symSize: 0x0 }
  - { offsetInCU: 0x4806, offset: 0x4806, size: 0x8, addend: 0x0, symName: __ZNSt3__124__put_character_sequenceB8ue170006IcNS_11char_traitsIcEEEERNS_13basic_ostreamIT_T0_EES7_PKS4_m, symObjAddr: 0xDDF4, symBinAddr: 0x100010954, symSize: 0x103C }
  - { offsetInCU: 0x639B, offset: 0x639B, size: 0x8, addend: 0x0, symName: __ZNSt3__1lsB8ue170006INS_11char_traitsIcEEEERNS_13basic_ostreamIcT_EES6_PKc, symObjAddr: 0x1618, symBinAddr: 0x100004178, symSize: 0xD0 }
  - { offsetInCU: 0x63E1, offset: 0x63E1, size: 0x8, addend: 0x0, symName: __ZNSt3__14endlB8ue170006IcNS_11char_traitsIcEEEERNS_13basic_ostreamIT_T0_EES7_, symObjAddr: 0x17F0, symBinAddr: 0x100004350, symSize: 0x3D8 }
  - { offsetInCU: 0x6421, offset: 0x6421, size: 0x8, addend: 0x0, symName: __ZNSt3__1plB8ue170006IcNS_11char_traitsIcEENS_9allocatorIcEEEENS_12basic_stringIT_T0_T1_EERKS9_OS9_, symObjAddr: 0x1E94, symBinAddr: 0x1000049F4, symSize: 0x140 }
  - { offsetInCU: 0x6479, offset: 0x6479, size: 0x8, addend: 0x0, symName: __ZNSt3__118__constexpr_strlenB8ue170006EPKc, symObjAddr: 0x4B7C, symBinAddr: 0x1000076DC, symSize: 0x24 }
  - { offsetInCU: 0x64A5, offset: 0x64A5, size: 0x8, addend: 0x0, symName: __ZNSt3__122__make_exception_guardB8ue170006INS_6vectorINS_12basic_stringIcNS_11char_traitsIcEENS_9allocatorIcEEEENS5_IS7_EEE16__destroy_vectorEEENS_28__exception_guard_exceptionsIT_EESC_, symObjAddr: 0x51E4, symBinAddr: 0x100007D44, symSize: 0x2BC }
  - { offsetInCU: 0x64DE, offset: 0x64DE, size: 0x8, addend: 0x0, symName: __ZNSt3__119__allocate_at_leastB8ue170006INS_9allocatorINS_12basic_stringIcNS_11char_traitsIcEENS1_IcEEEEEEEENS_19__allocation_resultINS_16allocator_traitsIT_E7pointerEEERSA_m, symObjAddr: 0x71F8, symBinAddr: 0x100009D58, symSize: 0x28C }
  - { offsetInCU: 0x6523, offset: 0x6523, size: 0x8, addend: 0x0, symName: __ZNSt3__13minB8ue170006ImEERKT_S3_S3_, symObjAddr: 0x79E0, symBinAddr: 0x10000A540, symSize: 0x104 }
  - { offsetInCU: 0x6750, offset: 0x6750, size: 0x8, addend: 0x0, symName: __ZNSt3__13minB8ue170006ImNS_6__lessIvvEEEERKT_S5_S5_T0_, symObjAddr: 0x7C00, symBinAddr: 0x10000A760, symSize: 0x2C0 }
  - { offsetInCU: 0x67F5, offset: 0x67F5, size: 0x8, addend: 0x0, symName: __ZNSt3__120__throw_length_errorB8ue170006EPKc, symObjAddr: 0x8180, symBinAddr: 0x10000ACE0, symSize: 0xB4 }
  - { offsetInCU: 0x681F, offset: 0x681F, size: 0x8, addend: 0x0, symName: __ZNSt3__117__libcpp_allocateB8ue170006Emm, symObjAddr: 0x8528, symBinAddr: 0x10000B088, symSize: 0x60 }
  - { offsetInCU: 0x6879, offset: 0x6879, size: 0x8, addend: 0x0, symName: __ZNSt3__124__is_overaligned_for_newB8ue170006Em, symObjAddr: 0x8588, symBinAddr: 0x10000B0E8, symSize: 0x20 }
  - { offsetInCU: 0x68A7, offset: 0x68A7, size: 0x8, addend: 0x0, symName: __ZNSt3__121__libcpp_operator_newB8ue170006IJmSt11align_val_tEEEPvDpT_, symObjAddr: 0x85A8, symBinAddr: 0x10000B108, symSize: 0x6C }
  - { offsetInCU: 0x68F4, offset: 0x68F4, size: 0x8, addend: 0x0, symName: __ZNSt3__121__libcpp_operator_newB8ue170006IJmEEEPvDpT_, symObjAddr: 0x8614, symBinAddr: 0x10000B174, symSize: 0x24 }
  - { offsetInCU: 0x692D, offset: 0x692D, size: 0x8, addend: 0x0, symName: __ZNSt3__112__to_addressB8ue170006INS_12basic_stringIcNS_11char_traitsIcEENS_9allocatorIcEEEEEEPT_S8_, symObjAddr: 0x8C14, symBinAddr: 0x10000B774, symSize: 0x14 }
  - { offsetInCU: 0x6962, offset: 0x6962, size: 0x8, addend: 0x0, symName: __ZNSt3__130__uninitialized_allocator_copyB8ue170006INS_9allocatorINS_12basic_stringIcNS_11char_traitsIcEENS1_IcEEEEEEPKS6_S9_PS6_EET2_RT_T0_T1_SB_, symObjAddr: 0x8F80, symBinAddr: 0x10000BAE0, symSize: 0x334 }
  - { offsetInCU: 0x6A08, offset: 0x6A08, size: 0x8, addend: 0x0, symName: __ZNSt3__114__unwrap_rangeB8ue170006IPKNS_12basic_stringIcNS_11char_traitsIcEENS_9allocatorIcEEEES8_EENS_4pairIT0_SA_EET_SC_, symObjAddr: 0x9B78, symBinAddr: 0x10000C6D8, symSize: 0x350 }
  - { offsetInCU: 0x6A56, offset: 0x6A56, size: 0x8, addend: 0x0, symName: __ZNSt3__135__uninitialized_allocator_copy_implB8ue170006INS_9allocatorINS_12basic_stringIcNS_11char_traitsIcEENS1_IcEEEEEEPKS6_S9_PS6_EET2_RT_T0_T1_SB_, symObjAddr: 0x9EC8, symBinAddr: 0x10000CA28, symSize: 0x6EC }
  - { offsetInCU: 0x6B02, offset: 0x6B02, size: 0x8, addend: 0x0, symName: __ZNSt3__113__unwrap_iterB8ue170006IPNS_12basic_stringIcNS_11char_traitsIcEENS_9allocatorIcEEEENS_18__unwrap_iter_implIS7_Lb1EEELi0EEEDTclsrT0_8__unwrapclsr3stdE7declvalIT_EEEESB_, symObjAddr: 0xA5B4, symBinAddr: 0x10000D114, symSize: 0x24 }
  - { offsetInCU: 0x6B46, offset: 0x6B46, size: 0x8, addend: 0x0, symName: __ZNSt3__113__rewrap_iterB8ue170006IPNS_12basic_stringIcNS_11char_traitsIcEENS_9allocatorIcEEEES7_NS_18__unwrap_iter_implIS7_Lb1EEEEET_SA_T0_, symObjAddr: 0xA5D8, symBinAddr: 0x10000D138, symSize: 0x48 }
  - { offsetInCU: 0x6B9B, offset: 0x6B9B, size: 0x8, addend: 0x0, symName: __ZNSt3__19make_pairB8ue170006IPKNS_12basic_stringIcNS_11char_traitsIcEENS_9allocatorIcEEEES8_EENS_4pairINS_18__unwrap_ref_decayIT_E4typeENSA_IT0_E4typeEEEOSB_OSE_, symObjAddr: 0xA620, symBinAddr: 0x10000D180, symSize: 0x2A0 }
  - { offsetInCU: 0x6BEC, offset: 0x6BEC, size: 0x8, addend: 0x0, symName: __ZNSt3__113__unwrap_iterB8ue170006IPKNS_12basic_stringIcNS_11char_traitsIcEENS_9allocatorIcEEEENS_18__unwrap_iter_implIS8_Lb1EEELi0EEEDTclsrT0_8__unwrapclsr3stdE7declvalIT_EEEESC_, symObjAddr: 0xA8C0, symBinAddr: 0x10000D420, symSize: 0x24 }
  - { offsetInCU: 0x6D57, offset: 0x6D57, size: 0x8, addend: 0x0, symName: __ZNSt3__112__to_addressB8ue170006IKNS_12basic_stringIcNS_11char_traitsIcEENS_9allocatorIcEEEEEEPT_S9_, symObjAddr: 0xABA0, symBinAddr: 0x10000D700, symSize: 0x14 }
  - { offsetInCU: 0x6D8C, offset: 0x6D8C, size: 0x8, addend: 0x0, symName: __ZNSt3__122__make_exception_guardB8ue170006INS_29_AllocatorDestroyRangeReverseINS_9allocatorINS_12basic_stringIcNS_11char_traitsIcEENS2_IcEEEEEEPS7_EEEENS_28__exception_guard_exceptionsIT_EESC_, symObjAddr: 0xABB4, symBinAddr: 0x10000D714, symSize: 0x23C }
  - { offsetInCU: 0x6DC3, offset: 0x6DC3, size: 0x8, addend: 0x0, symName: __ZNSt3__119__allocator_destroyB8ue170006INS_9allocatorINS_12basic_stringIcNS_11char_traitsIcEENS1_IcEEEEEENS_16reverse_iteratorIPS6_EESA_EEvRT_T0_T1_, symObjAddr: 0xBA58, symBinAddr: 0x10000E5B8, symSize: 0x2DC }
  - { offsetInCU: 0x6E2F, offset: 0x6E2F, size: 0x8, addend: 0x0, symName: __ZNSt3__1neB8ue170006IPNS_12basic_stringIcNS_11char_traitsIcEENS_9allocatorIcEEEES7_EEbRKNS_16reverse_iteratorIT_EERKNS8_IT0_EE, symObjAddr: 0xBDB4, symBinAddr: 0x10000E914, symSize: 0x9C }
  - { offsetInCU: 0x6E7B, offset: 0x6E7B, size: 0x8, addend: 0x0, symName: __ZNSt3__112__to_addressB8ue170006INS_16reverse_iteratorIPNS_12basic_stringIcNS_11char_traitsIcEENS_9allocatorIcEEEEEEvEEu7__decayIDTclsr19__to_address_helperIT_EE6__callclsr3stdE7declvalIRKSA_EEEEESC_, symObjAddr: 0xBE7C, symBinAddr: 0x10000E9DC, symSize: 0x6C }
  - { offsetInCU: 0x6F2D, offset: 0x6F2D, size: 0x8, addend: 0x0, symName: __ZNSt3__119__libcpp_deallocateB8ue170006EPvmm, symObjAddr: 0xDA58, symBinAddr: 0x1000105B8, symSize: 0x60 }
  - { offsetInCU: 0x6F92, offset: 0x6F92, size: 0x8, addend: 0x0, symName: __ZNSt3__127__do_deallocate_handle_sizeB8ue170006IJSt11align_val_tEEEvPvmDpT_, symObjAddr: 0xDAB8, symBinAddr: 0x100010618, symSize: 0x30 }
  - { offsetInCU: 0x6FE5, offset: 0x6FE5, size: 0x8, addend: 0x0, symName: __ZNSt3__127__do_deallocate_handle_sizeB8ue170006IJEEEvPvmDpT_, symObjAddr: 0xDAE8, symBinAddr: 0x100010648, symSize: 0x28 }
  - { offsetInCU: 0x7023, offset: 0x7023, size: 0x8, addend: 0x0, symName: __ZNSt3__124__libcpp_operator_deleteB8ue170006IJPvSt11align_val_tEEEvDpT_, symObjAddr: 0xDB10, symBinAddr: 0x100010670, symSize: 0x2C }
  - { offsetInCU: 0x706C, offset: 0x706C, size: 0x8, addend: 0x0, symName: __ZNSt3__124__libcpp_operator_deleteB8ue170006IJPvEEEvDpT_, symObjAddr: 0xDB3C, symBinAddr: 0x10001069C, symSize: 0x24 }
  - { offsetInCU: 0x70A1, offset: 0x70A1, size: 0x8, addend: 0x0, symName: __ZNSt3__116__pad_and_outputB8ue170006IcNS_11char_traitsIcEEEENS_19ostreambuf_iteratorIT_T0_EES6_PKS4_S8_S8_RNS_8ios_baseES4_, symObjAddr: 0xEF34, symBinAddr: 0x100011A94, symSize: 0xB88 }
  - { offsetInCU: 0x717E, offset: 0x717E, size: 0x8, addend: 0x0, symName: __ZNSt3__112__to_addressB8ue170006IcEEPT_S2_, symObjAddr: 0x10A44, symBinAddr: 0x1000135A4, symSize: 0x14 }
  - { offsetInCU: 0x71E6, offset: 0x71E6, size: 0x8, addend: 0x0, symName: __ZNSt3__19use_facetB8ue170006INS_5ctypeIcEEEERKT_RKNS_6localeE, symObjAddr: 0x11E60, symBinAddr: 0x1000149C0, symSize: 0x188 }
  - { offsetInCU: 0x76B3, offset: 0x76B3, size: 0x8, addend: 0x0, symName: __ZNSt3__112__to_addressB8ue170006IKcEEPT_S3_, symObjAddr: 0x12618, symBinAddr: 0x100015178, symSize: 0x14 }
  - { offsetInCU: 0x79F1, offset: 0x79F1, size: 0x8, addend: 0x0, symName: __ZSt28__throw_bad_array_new_lengthB8ue170006v, symObjAddr: 0x84AC, symBinAddr: 0x10000B00C, symSize: 0x7C }
  - { offsetInCU: 0x7D07, offset: 0x7D07, size: 0x8, addend: 0x0, symName: _.str, symObjAddr: 0x13EC0, symBinAddr: 0x10009B280, symSize: 0x0 }
  - { offsetInCU: 0x7D24, offset: 0x7D24, size: 0x8, addend: 0x0, symName: _.str.2, symObjAddr: 0x13EE0, symBinAddr: 0x10009B2A0, symSize: 0x0 }
  - { offsetInCU: 0x7D41, offset: 0x7D41, size: 0x8, addend: 0x0, symName: _.str.3, symObjAddr: 0x13F00, symBinAddr: 0x10009B2C0, symSize: 0x0 }
  - { offsetInCU: 0x7D52, offset: 0x7D52, size: 0x8, addend: 0x0, symName: _.str.4, symObjAddr: 0x13F20, symBinAddr: 0x10009B2E0, symSize: 0x0 }
  - { offsetInCU: 0x7D6F, offset: 0x7D6F, size: 0x8, addend: 0x0, symName: _.str.5, symObjAddr: 0x13F40, symBinAddr: 0x10009B300, symSize: 0x0 }
  - { offsetInCU: 0x7D80, offset: 0x7D80, size: 0x8, addend: 0x0, symName: _.str.6, symObjAddr: 0x13F60, symBinAddr: 0x10009B320, symSize: 0x0 }
  - { offsetInCU: 0x7D91, offset: 0x7D91, size: 0x8, addend: 0x0, symName: _.str.7, symObjAddr: 0x13F80, symBinAddr: 0x10009B340, symSize: 0x0 }
  - { offsetInCU: 0x7DAE, offset: 0x7DAE, size: 0x8, addend: 0x0, symName: _.str.8, symObjAddr: 0x13FA0, symBinAddr: 0x10009B360, symSize: 0x0 }
  - { offsetInCU: 0x7DBF, offset: 0x7DBF, size: 0x8, addend: 0x0, symName: _.str.9, symObjAddr: 0x13FC0, symBinAddr: 0x10009B380, symSize: 0x0 }
  - { offsetInCU: 0x7DDA, offset: 0x7DDA, size: 0x8, addend: 0x0, symName: __ZN8P2random12ZOMBIE_NAMESE, symObjAddr: 0x48A40, symBinAddr: 0x1000D9400, symSize: 0x0 }
  - { offsetInCU: 0x7DED, offset: 0x7DED, size: 0x8, addend: 0x0, symName: __ZN8P2random8genStateE, symObjAddr: 0x48A80, symBinAddr: 0x1000D9440, symSize: 0x0 }
  - { offsetInCU: 0x7E00, offset: 0x7E00, size: 0x8, addend: 0x0, symName: __ZN8P2random13zombieCounterE, symObjAddr: 0x48AA0, symBinAddr: 0x1000D9460, symSize: 0x0 }
  - { offsetInCU: 0x7E13, offset: 0x7E13, size: 0x8, addend: 0x0, symName: __ZN8P2random11maxRandDistE, symObjAddr: 0x48AC0, symBinAddr: 0x1000D9480, symSize: 0x0 }
  - { offsetInCU: 0x7E26, offset: 0x7E26, size: 0x8, addend: 0x0, symName: __ZN8P2random12maxRandSpeedE, symObjAddr: 0x48AE0, symBinAddr: 0x1000D94A0, symSize: 0x0 }
  - { offsetInCU: 0x7E39, offset: 0x7E39, size: 0x8, addend: 0x0, symName: __ZN8P2random13maxRandHealthE, symObjAddr: 0x48B00, symBinAddr: 0x1000D94C0, symSize: 0x0 }
  - { offsetInCU: 0x7E4E, offset: 0x7E4E, size: 0x8, addend: 0x0, symName: _.str.10, symObjAddr: 0x13FE0, symBinAddr: 0x10009B3A0, symSize: 0x0 }
  - { offsetInCU: 0x7E63, offset: 0x7E63, size: 0x8, addend: 0x0, symName: __ZN8P2random15MersenneTwister16genrand_uint32_tEv, symObjAddr: 0x24C4, symBinAddr: 0x100005024, symSize: 0x1E38 }
  - { offsetInCU: 0x7E88, offset: 0x7E88, size: 0x8, addend: 0x0, symName: __ZZN8P2random15MersenneTwister16genrand_uint32_tEvE5mag01, symObjAddr: 0x16BC0, symBinAddr: 0x1000BC4E0, symSize: 0x0 }
  - { offsetInCU: 0x7EDD, offset: 0x7EDD, size: 0x8, addend: 0x0, symName: _.str.19, symObjAddr: 0x14040, symBinAddr: 0x10009B400, symSize: 0x0 }
  - { offsetInCU: 0xA500, offset: 0xA500, size: 0x8, addend: 0x0, symName: __ZN8P2random15MersenneTwisterC1Ev, symObjAddr: 0x0, symBinAddr: 0x100002B60, symSize: 0x78 }
  - { offsetInCU: 0xA52B, offset: 0xA52B, size: 0x8, addend: 0x0, symName: __ZN8P2random15MersenneTwisterD1Ev, symObjAddr: 0x78, symBinAddr: 0x100002BD8, symSize: 0x78 }
  - { offsetInCU: 0xA55B, offset: 0xA55B, size: 0x8, addend: 0x0, symName: __ZNSt3__112basic_stringIcNS_11char_traitsIcEENS_9allocatorIcEEEC1B8ue170006ILi0EEEPKc, symObjAddr: 0xF0, symBinAddr: 0x100002C50, symSize: 0x80 }
  - { offsetInCU: 0xA599, offset: 0xA599, size: 0x8, addend: 0x0, symName: __ZNSt3__16vectorINS_12basic_stringIcNS_11char_traitsIcEENS_9allocatorIcEEEENS4_IS6_EEEC1B8ue170006ESt16initializer_listIS6_E, symObjAddr: 0x170, symBinAddr: 0x100002CD0, symSize: 0x29C }
  - { offsetInCU: 0xA5D8, offset: 0xA5D8, size: 0x8, addend: 0x0, symName: __ZNSt3__16vectorINS_12basic_stringIcNS_11char_traitsIcEENS_9allocatorIcEEEENS4_IS6_EEED1B8ue170006Ev, symObjAddr: 0x40C, symBinAddr: 0x100002F6C, symSize: 0x78 }
  - { offsetInCU: 0xA601, offset: 0xA601, size: 0x8, addend: 0x0, symName: __ZN8P2random10initializeEjjjj, symObjAddr: 0x484, symBinAddr: 0x100002FE4, symSize: 0x6C }
  - { offsetInCU: 0xA64F, offset: 0xA64F, size: 0x8, addend: 0x0, symName: __ZN8P2random15MersenneTwister12init_genrandEj, symObjAddr: 0x4F0, symBinAddr: 0x100003050, symSize: 0xBE8 }
  - { offsetInCU: 0xA684, offset: 0xA684, size: 0x8, addend: 0x0, symName: __ZN8P2random17getNextZombieNameEv, symObjAddr: 0x10D8, symBinAddr: 0x100003C38, symSize: 0x540 }
  - { offsetInCU: 0xA6B9, offset: 0xA6B9, size: 0x8, addend: 0x0, symName: __ZNSt3__113basic_ostreamIcNS_11char_traitsIcEEElsB8ue170006EPFRS3_S4_E, symObjAddr: 0x16E8, symBinAddr: 0x100004248, symSize: 0x108 }
  - { offsetInCU: 0xA6EC, offset: 0xA6EC, size: 0x8, addend: 0x0, symName: __ZNSt3__16vectorINS_12basic_stringIcNS_11char_traitsIcEENS_9allocatorIcEEEENS4_IS6_EEEixB8ue170006Em, symObjAddr: 0x1BC8, symBinAddr: 0x100004728, symSize: 0x1D4 }
  - { offsetInCU: 0xA722, offset: 0xA722, size: 0x8, addend: 0x0, symName: __ZNKSt3__16vectorINS_12basic_stringIcNS_11char_traitsIcEENS_9allocatorIcEEEENS4_IS6_EEE4sizeB8ue170006Ev, symObjAddr: 0x1D9C, symBinAddr: 0x1000048FC, symSize: 0xF8 }
  - { offsetInCU: 0xA747, offset: 0xA747, size: 0x8, addend: 0x0, symName: __ZN8P2random21getNextZombieDistanceEv, symObjAddr: 0x1FD4, symBinAddr: 0x100004B34, symSize: 0x17C }
  - { offsetInCU: 0xA75D, offset: 0xA75D, size: 0x8, addend: 0x0, symName: __ZN8P2random10getNextIntEj, symObjAddr: 0x2150, symBinAddr: 0x100004CB0, symSize: 0x80 }
  - { offsetInCU: 0xA782, offset: 0xA782, size: 0x8, addend: 0x0, symName: __ZN8P2random18getNextZombieSpeedEv, symObjAddr: 0x21D0, symBinAddr: 0x100004D30, symSize: 0x17C }
  - { offsetInCU: 0xA798, offset: 0xA798, size: 0x8, addend: 0x0, symName: __ZN8P2random19getNextZombieHealthEv, symObjAddr: 0x234C, symBinAddr: 0x100004EAC, symSize: 0x178 }
  - { offsetInCU: 0xA7AE, offset: 0xA7AE, size: 0x8, addend: 0x0, symName: __ZN8P2random15MersenneTwisterC2Ev, symObjAddr: 0x42FC, symBinAddr: 0x100006E5C, symSize: 0x174 }
  - { offsetInCU: 0xA7D9, offset: 0xA7D9, size: 0x8, addend: 0x0, symName: __ZN8P2random15MersenneTwisterD2Ev, symObjAddr: 0x4470, symBinAddr: 0x100006FD0, symSize: 0x110 }
  - { offsetInCU: 0xA804, offset: 0xA804, size: 0x8, addend: 0x0, symName: __ZNSt3__112basic_stringIcNS_11char_traitsIcEENS_9allocatorIcEEEC2B8ue170006ILi0EEEPKc, symObjAddr: 0x4580, symBinAddr: 0x1000070E0, symSize: 0x278 }
  - { offsetInCU: 0xA849, offset: 0xA849, size: 0x8, addend: 0x0, symName: __ZNSt3__117__compressed_pairINS_12basic_stringIcNS_11char_traitsIcEENS_9allocatorIcEEE5__repES5_EC1B8ue170006INS_18__default_init_tagESA_EEOT_OT0_, symObjAddr: 0x47F8, symBinAddr: 0x100007358, symSize: 0x88 }
  - { offsetInCU: 0xA8A0, offset: 0xA8A0, size: 0x8, addend: 0x0, symName: __ZNSt3__111char_traitsIcE6lengthB8ue170006EPKc, symObjAddr: 0x4880, symBinAddr: 0x1000073E0, symSize: 0x40 }
  - { offsetInCU: 0xA8C3, offset: 0xA8C3, size: 0x8, addend: 0x0, symName: __ZNSt3__117__compressed_pairINS_12basic_stringIcNS_11char_traitsIcEENS_9allocatorIcEEE5__repES5_EC2B8ue170006INS_18__default_init_tagESA_EEOT_OT0_, symObjAddr: 0x48C0, symBinAddr: 0x100007420, symSize: 0xF4 }
  - { offsetInCU: 0xA91A, offset: 0xA91A, size: 0x8, addend: 0x0, symName: __ZNSt3__122__compressed_pair_elemINS_12basic_stringIcNS_11char_traitsIcEENS_9allocatorIcEEE5__repELi0ELb0EEC2B8ue170006ENS_18__default_init_tagE, symObjAddr: 0x49B4, symBinAddr: 0x100007514, symSize: 0x6C }
  - { offsetInCU: 0xA94E, offset: 0xA94E, size: 0x8, addend: 0x0, symName: __ZNSt3__122__compressed_pair_elemINS_9allocatorIcEELi1ELb1EEC2B8ue170006ENS_18__default_init_tagE, symObjAddr: 0x4A20, symBinAddr: 0x100007580, symSize: 0x84 }
  - { offsetInCU: 0xA982, offset: 0xA982, size: 0x8, addend: 0x0, symName: __ZNSt3__19allocatorIcEC2B8ue170006Ev, symObjAddr: 0x4AA4, symBinAddr: 0x100007604, symSize: 0x84 }
  - { offsetInCU: 0xA9AB, offset: 0xA9AB, size: 0x8, addend: 0x0, symName: __ZNSt3__116__non_trivial_ifILb1ENS_9allocatorIcEEEC2B8ue170006Ev, symObjAddr: 0x4B28, symBinAddr: 0x100007688, symSize: 0x54 }
  - { offsetInCU: 0xA9D4, offset: 0xA9D4, size: 0x8, addend: 0x0, symName: __ZNSt3__16vectorINS_12basic_stringIcNS_11char_traitsIcEENS_9allocatorIcEEEENS4_IS6_EEEC2B8ue170006ESt16initializer_listIS6_E, symObjAddr: 0x4BAC, symBinAddr: 0x10000770C, symSize: 0x5B0 }
  - { offsetInCU: 0xAA31, offset: 0xAA31, size: 0x8, addend: 0x0, symName: __ZNSt3__117__compressed_pairIPNS_12basic_stringIcNS_11char_traitsIcEENS_9allocatorIcEEEENS4_IS6_EEEC1B8ue170006IDnNS_18__default_init_tagEEEOT_OT0_, symObjAddr: 0x515C, symBinAddr: 0x100007CBC, symSize: 0x88 }
  - { offsetInCU: 0xAA88, offset: 0xAA88, size: 0x8, addend: 0x0, symName: __ZNSt3__16vectorINS_12basic_stringIcNS_11char_traitsIcEENS_9allocatorIcEEEENS4_IS6_EEE16__destroy_vectorC1B8ue170006ERS8_, symObjAddr: 0x54A0, symBinAddr: 0x100008000, symSize: 0x80 }
  - { offsetInCU: 0xAAC0, offset: 0xAAC0, size: 0x8, addend: 0x0, symName: __ZNKSt16initializer_listINSt3__112basic_stringIcNS0_11char_traitsIcEENS0_9allocatorIcEEEEE4sizeB8ue170006Ev, symObjAddr: 0x5520, symBinAddr: 0x100008080, symSize: 0xB0 }
  - { offsetInCU: 0xAAE5, offset: 0xAAE5, size: 0x8, addend: 0x0, symName: __ZNSt3__16vectorINS_12basic_stringIcNS_11char_traitsIcEENS_9allocatorIcEEEENS4_IS6_EEE11__vallocateB8ue170006Em, symObjAddr: 0x55D0, symBinAddr: 0x100008130, symSize: 0x5F0 }
  - { offsetInCU: 0xAB2E, offset: 0xAB2E, size: 0x8, addend: 0x0, symName: __ZNSt3__16vectorINS_12basic_stringIcNS_11char_traitsIcEENS_9allocatorIcEEEENS4_IS6_EEE18__construct_at_endIPKS6_SB_EEvT_T0_m, symObjAddr: 0x5BC0, symBinAddr: 0x100008720, symSize: 0x494 }
  - { offsetInCU: 0xABAB, offset: 0xABAB, size: 0x8, addend: 0x0, symName: __ZNKSt16initializer_listINSt3__112basic_stringIcNS0_11char_traitsIcEENS0_9allocatorIcEEEEE5beginB8ue170006Ev, symObjAddr: 0x6054, symBinAddr: 0x100008BB4, symSize: 0xAC }
  - { offsetInCU: 0xABD0, offset: 0xABD0, size: 0x8, addend: 0x0, symName: __ZNKSt16initializer_listINSt3__112basic_stringIcNS0_11char_traitsIcEENS0_9allocatorIcEEEEE3endB8ue170006Ev, symObjAddr: 0x6100, symBinAddr: 0x100008C60, symSize: 0x1C8 }
  - { offsetInCU: 0xABF5, offset: 0xABF5, size: 0x8, addend: 0x0, symName: __ZNSt3__128__exception_guard_exceptionsINS_6vectorINS_12basic_stringIcNS_11char_traitsIcEENS_9allocatorIcEEEENS5_IS7_EEE16__destroy_vectorEE10__completeB8ue170006Ev, symObjAddr: 0x62C8, symBinAddr: 0x100008E28, symSize: 0xD8 }
  - { offsetInCU: 0xAC1A, offset: 0xAC1A, size: 0x8, addend: 0x0, symName: __ZNSt3__128__exception_guard_exceptionsINS_6vectorINS_12basic_stringIcNS_11char_traitsIcEENS_9allocatorIcEEEENS5_IS7_EEE16__destroy_vectorEED1B8ue170006Ev, symObjAddr: 0x63A0, symBinAddr: 0x100008F00, symSize: 0x78 }
  - { offsetInCU: 0xAC43, offset: 0xAC43, size: 0x8, addend: 0x0, symName: __ZNSt3__117__compressed_pairIPNS_12basic_stringIcNS_11char_traitsIcEENS_9allocatorIcEEEENS4_IS6_EEEC2B8ue170006IDnNS_18__default_init_tagEEEOT_OT0_, symObjAddr: 0x6418, symBinAddr: 0x100008F78, symSize: 0x140 }
  - { offsetInCU: 0xAC9A, offset: 0xAC9A, size: 0x8, addend: 0x0, symName: __ZNSt3__122__compressed_pair_elemIPNS_12basic_stringIcNS_11char_traitsIcEENS_9allocatorIcEEEELi0ELb0EEC2B8ue170006IDnvEEOT_, symObjAddr: 0x6558, symBinAddr: 0x1000090B8, symSize: 0xBC }
  - { offsetInCU: 0xACDB, offset: 0xACDB, size: 0x8, addend: 0x0, symName: __ZNSt3__122__compressed_pair_elemINS_9allocatorINS_12basic_stringIcNS_11char_traitsIcEENS1_IcEEEEEELi1ELb1EEC2B8ue170006ENS_18__default_init_tagE, symObjAddr: 0x6614, symBinAddr: 0x100009174, symSize: 0x84 }
  - { offsetInCU: 0xAD0F, offset: 0xAD0F, size: 0x8, addend: 0x0, symName: __ZNSt3__19allocatorINS_12basic_stringIcNS_11char_traitsIcEENS0_IcEEEEEC2B8ue170006Ev, symObjAddr: 0x6698, symBinAddr: 0x1000091F8, symSize: 0x84 }
  - { offsetInCU: 0xAD38, offset: 0xAD38, size: 0x8, addend: 0x0, symName: __ZNSt3__116__non_trivial_ifILb1ENS_9allocatorINS_12basic_stringIcNS_11char_traitsIcEENS1_IcEEEEEEEC2B8ue170006Ev, symObjAddr: 0x671C, symBinAddr: 0x10000927C, symSize: 0x54 }
  - { offsetInCU: 0xAD61, offset: 0xAD61, size: 0x8, addend: 0x0, symName: __ZNSt3__128__exception_guard_exceptionsINS_6vectorINS_12basic_stringIcNS_11char_traitsIcEENS_9allocatorIcEEEENS5_IS7_EEE16__destroy_vectorEEC1B8ue170006ESA_, symObjAddr: 0x6770, symBinAddr: 0x1000092D0, symSize: 0x28C }
  - { offsetInCU: 0xAD9D, offset: 0xAD9D, size: 0x8, addend: 0x0, symName: __ZNSt3__128__exception_guard_exceptionsINS_6vectorINS_12basic_stringIcNS_11char_traitsIcEENS_9allocatorIcEEEENS5_IS7_EEE16__destroy_vectorEEC2B8ue170006ESA_, symObjAddr: 0x69FC, symBinAddr: 0x10000955C, symSize: 0x2BC }
  - { offsetInCU: 0xADD9, offset: 0xADD9, size: 0x8, addend: 0x0, symName: __ZNSt3__16vectorINS_12basic_stringIcNS_11char_traitsIcEENS_9allocatorIcEEEENS4_IS6_EEE16__destroy_vectorC2B8ue170006ERS8_, symObjAddr: 0x6CB8, symBinAddr: 0x100009818, symSize: 0x108 }
  - { offsetInCU: 0xAE11, offset: 0xAE11, size: 0x8, addend: 0x0, symName: __ZNKSt3__16vectorINS_12basic_stringIcNS_11char_traitsIcEENS_9allocatorIcEEEENS4_IS6_EEE8max_sizeEv, symObjAddr: 0x6DC0, symBinAddr: 0x100009920, symSize: 0x3B8 }
  - { offsetInCU: 0xAE39, offset: 0xAE39, size: 0x8, addend: 0x0, symName: __ZNKSt3__16vectorINS_12basic_stringIcNS_11char_traitsIcEENS_9allocatorIcEEEENS4_IS6_EEE20__throw_length_errorB8ue170006Ev, symObjAddr: 0x7178, symBinAddr: 0x100009CD8, symSize: 0x80 }
  - { offsetInCU: 0xAE5E, offset: 0xAE5E, size: 0x8, addend: 0x0, symName: __ZNSt3__16vectorINS_12basic_stringIcNS_11char_traitsIcEENS_9allocatorIcEEEENS4_IS6_EEE7__allocB8ue170006Ev, symObjAddr: 0x7484, symBinAddr: 0x100009FE4, symSize: 0xE4 }
  - { offsetInCU: 0xAE83, offset: 0xAE83, size: 0x8, addend: 0x0, symName: __ZNSt3__16vectorINS_12basic_stringIcNS_11char_traitsIcEENS_9allocatorIcEEEENS4_IS6_EEE9__end_capB8ue170006Ev, symObjAddr: 0x7568, symBinAddr: 0x10000A0C8, symSize: 0x100 }
  - { offsetInCU: 0xAEA8, offset: 0xAEA8, size: 0x8, addend: 0x0, symName: __ZNKSt3__16vectorINS_12basic_stringIcNS_11char_traitsIcEENS_9allocatorIcEEEENS4_IS6_EEE14__annotate_newB8ue170006Em, symObjAddr: 0x7668, symBinAddr: 0x10000A1C8, symSize: 0x378 }
  - { offsetInCU: 0xAEE6, offset: 0xAEE6, size: 0x8, addend: 0x0, symName: __ZNSt3__116allocator_traitsINS_9allocatorINS_12basic_stringIcNS_11char_traitsIcEENS1_IcEEEEEEE8max_sizeB8ue170006IS7_vEEmRKS7_, symObjAddr: 0x7AE4, symBinAddr: 0x10000A644, symSize: 0x24 }
  - { offsetInCU: 0xAF14, offset: 0xAF14, size: 0x8, addend: 0x0, symName: __ZNKSt3__16vectorINS_12basic_stringIcNS_11char_traitsIcEENS_9allocatorIcEEEENS4_IS6_EEE7__allocB8ue170006Ev, symObjAddr: 0x7B08, symBinAddr: 0x10000A668, symSize: 0xE4 }
  - { offsetInCU: 0xAF39, offset: 0xAF39, size: 0x8, addend: 0x0, symName: __ZNSt3__114numeric_limitsIlE3maxB8ue170006Ev, symObjAddr: 0x7BEC, symBinAddr: 0x10000A74C, symSize: 0x14 }
  - { offsetInCU: 0xAF61, offset: 0xAF61, size: 0x8, addend: 0x0, symName: __ZNKSt3__16__lessIvvEclB8ue170006ImmEEbRKT_RKT0_, symObjAddr: 0x7EC0, symBinAddr: 0x10000AA20, symSize: 0xEC }
  - { offsetInCU: 0xAFB4, offset: 0xAFB4, size: 0x8, addend: 0x0, symName: __ZNKSt3__19allocatorINS_12basic_stringIcNS_11char_traitsIcEENS0_IcEEEEE8max_sizeB8ue170006Ev, symObjAddr: 0x7FAC, symBinAddr: 0x10000AB0C, symSize: 0x50 }
  - { offsetInCU: 0xAFD9, offset: 0xAFD9, size: 0x8, addend: 0x0, symName: __ZNKSt3__117__compressed_pairIPNS_12basic_stringIcNS_11char_traitsIcEENS_9allocatorIcEEEENS4_IS6_EEE6secondB8ue170006Ev, symObjAddr: 0x7FFC, symBinAddr: 0x10000AB5C, symSize: 0x108 }
  - { offsetInCU: 0xAFFE, offset: 0xAFFE, size: 0x8, addend: 0x0, symName: __ZNKSt3__122__compressed_pair_elemINS_9allocatorINS_12basic_stringIcNS_11char_traitsIcEENS1_IcEEEEEELi1ELb1EE5__getB8ue170006Ev, symObjAddr: 0x8104, symBinAddr: 0x10000AC64, symSize: 0x74 }
  - { offsetInCU: 0xB023, offset: 0xB023, size: 0x8, addend: 0x0, symName: __ZNSt3__123__libcpp_numeric_limitsIlLb1EE3maxB8ue170006Ev, symObjAddr: 0x8178, symBinAddr: 0x10000ACD8, symSize: 0x8 }
  - { offsetInCU: 0xB037, offset: 0xB037, size: 0x8, addend: 0x0, symName: __ZNSt12length_errorC1B8ue170006EPKc, symObjAddr: 0x8234, symBinAddr: 0x10000AD94, symSize: 0x80 }
  - { offsetInCU: 0xB06E, offset: 0xB06E, size: 0x8, addend: 0x0, symName: __ZNSt12length_errorC2B8ue170006EPKc, symObjAddr: 0x82B4, symBinAddr: 0x10000AE14, symSize: 0x128 }
  - { offsetInCU: 0xB0A5, offset: 0xB0A5, size: 0x8, addend: 0x0, symName: __ZNSt3__19allocatorINS_12basic_stringIcNS_11char_traitsIcEENS0_IcEEEEE8allocateB8ue170006Em, symObjAddr: 0x83DC, symBinAddr: 0x10000AF3C, symSize: 0xD0 }
  - { offsetInCU: 0xB0D8, offset: 0xB0D8, size: 0x8, addend: 0x0, symName: __ZNSt3__117__compressed_pairIPNS_12basic_stringIcNS_11char_traitsIcEENS_9allocatorIcEEEENS4_IS6_EEE6secondB8ue170006Ev, symObjAddr: 0x8638, symBinAddr: 0x10000B198, symSize: 0x108 }
  - { offsetInCU: 0xB0FD, offset: 0xB0FD, size: 0x8, addend: 0x0, symName: __ZNSt3__122__compressed_pair_elemINS_9allocatorINS_12basic_stringIcNS_11char_traitsIcEENS1_IcEEEEEELi1ELb1EE5__getB8ue170006Ev, symObjAddr: 0x8740, symBinAddr: 0x10000B2A0, symSize: 0x74 }
  - { offsetInCU: 0xB122, offset: 0xB122, size: 0x8, addend: 0x0, symName: __ZNSt3__117__compressed_pairIPNS_12basic_stringIcNS_11char_traitsIcEENS_9allocatorIcEEEENS4_IS6_EEE5firstB8ue170006Ev, symObjAddr: 0x87B4, symBinAddr: 0x10000B314, symSize: 0x124 }
  - { offsetInCU: 0xB147, offset: 0xB147, size: 0x8, addend: 0x0, symName: __ZNSt3__122__compressed_pair_elemIPNS_12basic_stringIcNS_11char_traitsIcEENS_9allocatorIcEEEELi0ELb0EE5__getB8ue170006Ev, symObjAddr: 0x88D8, symBinAddr: 0x10000B438, symSize: 0xAC }
  - { offsetInCU: 0xB16C, offset: 0xB16C, size: 0x8, addend: 0x0, symName: __ZNKSt3__16vectorINS_12basic_stringIcNS_11char_traitsIcEENS_9allocatorIcEEEENS4_IS6_EEE31__annotate_contiguous_containerEPKvSA_SA_SA_, symObjAddr: 0x8984, symBinAddr: 0x10000B4E4, symSize: 0x9C }
  - { offsetInCU: 0xB1CD, offset: 0xB1CD, size: 0x8, addend: 0x0, symName: __ZNKSt3__16vectorINS_12basic_stringIcNS_11char_traitsIcEENS_9allocatorIcEEEENS4_IS6_EEE4dataB8ue170006Ev, symObjAddr: 0x8A20, symBinAddr: 0x10000B580, symSize: 0xB0 }
  - { offsetInCU: 0xB1F2, offset: 0xB1F2, size: 0x8, addend: 0x0, symName: __ZNKSt3__16vectorINS_12basic_stringIcNS_11char_traitsIcEENS_9allocatorIcEEEENS4_IS6_EEE8capacityB8ue170006Ev, symObjAddr: 0x8AD0, symBinAddr: 0x10000B630, symSize: 0x144 }
  - { offsetInCU: 0xB217, offset: 0xB217, size: 0x8, addend: 0x0, symName: __ZNKSt3__16vectorINS_12basic_stringIcNS_11char_traitsIcEENS_9allocatorIcEEEENS4_IS6_EEE9__end_capB8ue170006Ev, symObjAddr: 0x8C28, symBinAddr: 0x10000B788, symSize: 0x100 }
  - { offsetInCU: 0xB23C, offset: 0xB23C, size: 0x8, addend: 0x0, symName: __ZNKSt3__117__compressed_pairIPNS_12basic_stringIcNS_11char_traitsIcEENS_9allocatorIcEEEENS4_IS6_EEE5firstB8ue170006Ev, symObjAddr: 0x8D28, symBinAddr: 0x10000B888, symSize: 0x124 }
  - { offsetInCU: 0xB261, offset: 0xB261, size: 0x8, addend: 0x0, symName: __ZNKSt3__122__compressed_pair_elemIPNS_12basic_stringIcNS_11char_traitsIcEENS_9allocatorIcEEEELi0ELb0EE5__getB8ue170006Ev, symObjAddr: 0x8E4C, symBinAddr: 0x10000B9AC, symSize: 0xAC }
  - { offsetInCU: 0xB29F, offset: 0xB29F, size: 0x8, addend: 0x0, symName: __ZNSt3__16vectorINS_12basic_stringIcNS_11char_traitsIcEENS_9allocatorIcEEEENS4_IS6_EEE21_ConstructTransactionC1B8ue170006ERS8_m, symObjAddr: 0x8EF8, symBinAddr: 0x10000BA58, symSize: 0x88 }
  - { offsetInCU: 0xB2E6, offset: 0xB2E6, size: 0x8, addend: 0x0, symName: __ZNSt3__16vectorINS_12basic_stringIcNS_11char_traitsIcEENS_9allocatorIcEEEENS4_IS6_EEE21_ConstructTransactionD1B8ue170006Ev, symObjAddr: 0x92B4, symBinAddr: 0x10000BE14, symSize: 0x78 }
  - { offsetInCU: 0xB30F, offset: 0xB30F, size: 0x8, addend: 0x0, symName: __ZNSt3__16vectorINS_12basic_stringIcNS_11char_traitsIcEENS_9allocatorIcEEEENS4_IS6_EEE21_ConstructTransactionC2B8ue170006ERS8_m, symObjAddr: 0x932C, symBinAddr: 0x10000BE8C, symSize: 0x3E0 }
  - { offsetInCU: 0xB356, offset: 0xB356, size: 0x8, addend: 0x0, symName: __ZNKSt3__16vectorINS_12basic_stringIcNS_11char_traitsIcEENS_9allocatorIcEEEENS4_IS6_EEE19__annotate_increaseB8ue170006Em, symObjAddr: 0x970C, symBinAddr: 0x10000C26C, symSize: 0x46C }
  - { offsetInCU: 0xB3A8, offset: 0xB3A8, size: 0x8, addend: 0x0, symName: __ZNSt3__14pairIPKNS_12basic_stringIcNS_11char_traitsIcEENS_9allocatorIcEEEES8_EC1B8ue170006IS8_S8_LPv0EEEOT_OT0_, symObjAddr: 0xA8E4, symBinAddr: 0x10000D444, symSize: 0x88 }
  - { offsetInCU: 0xB405, offset: 0xB405, size: 0x8, addend: 0x0, symName: __ZNSt3__14pairIPKNS_12basic_stringIcNS_11char_traitsIcEENS_9allocatorIcEEEES8_EC2B8ue170006IS8_S8_LPv0EEEOT_OT0_, symObjAddr: 0xA96C, symBinAddr: 0x10000D4CC, symSize: 0x210 }
  - { offsetInCU: 0xB462, offset: 0xB462, size: 0x8, addend: 0x0, symName: __ZNSt3__118__unwrap_iter_implIPKNS_12basic_stringIcNS_11char_traitsIcEENS_9allocatorIcEEEELb1EE8__unwrapB8ue170006ES8_, symObjAddr: 0xAB7C, symBinAddr: 0x10000D6DC, symSize: 0x24 }
  - { offsetInCU: 0xB485, offset: 0xB485, size: 0x8, addend: 0x0, symName: __ZNSt3__129_AllocatorDestroyRangeReverseINS_9allocatorINS_12basic_stringIcNS_11char_traitsIcEENS1_IcEEEEEEPS6_EC1B8ue170006ERS7_RS8_SB_, symObjAddr: 0xADF0, symBinAddr: 0x10000D950, symSize: 0x90 }
  - { offsetInCU: 0xB4DB, offset: 0xB4DB, size: 0x8, addend: 0x0, symName: __ZNSt3__116allocator_traitsINS_9allocatorINS_12basic_stringIcNS_11char_traitsIcEENS1_IcEEEEEEE9constructB8ue170006IS6_JRKS6_EvEEvRS7_PT_DpOT0_, symObjAddr: 0xAE80, symBinAddr: 0x10000D9E0, symSize: 0x8C }
  - { offsetInCU: 0xB532, offset: 0xB532, size: 0x8, addend: 0x0, symName: __ZNSt3__128__exception_guard_exceptionsINS_29_AllocatorDestroyRangeReverseINS_9allocatorINS_12basic_stringIcNS_11char_traitsIcEENS2_IcEEEEEEPS7_EEE10__completeB8ue170006Ev, symObjAddr: 0xAF0C, symBinAddr: 0x10000DA6C, symSize: 0xD8 }
  - { offsetInCU: 0xB557, offset: 0xB557, size: 0x8, addend: 0x0, symName: __ZNSt3__128__exception_guard_exceptionsINS_29_AllocatorDestroyRangeReverseINS_9allocatorINS_12basic_stringIcNS_11char_traitsIcEENS2_IcEEEEEEPS7_EEED1B8ue170006Ev, symObjAddr: 0xAFE4, symBinAddr: 0x10000DB44, symSize: 0x78 }
  - { offsetInCU: 0xB580, offset: 0xB580, size: 0x8, addend: 0x0, symName: __ZNSt3__128__exception_guard_exceptionsINS_29_AllocatorDestroyRangeReverseINS_9allocatorINS_12basic_stringIcNS_11char_traitsIcEENS2_IcEEEEEEPS7_EEEC1B8ue170006ESA_, symObjAddr: 0xB05C, symBinAddr: 0x10000DBBC, symSize: 0x84 }
  - { offsetInCU: 0xB5B8, offset: 0xB5B8, size: 0x8, addend: 0x0, symName: __ZNSt3__128__exception_guard_exceptionsINS_29_AllocatorDestroyRangeReverseINS_9allocatorINS_12basic_stringIcNS_11char_traitsIcEENS2_IcEEEEEEPS7_EEEC2B8ue170006ESA_, symObjAddr: 0xB0E0, symBinAddr: 0x10000DC40, symSize: 0xF8 }
  - { offsetInCU: 0xB5F0, offset: 0xB5F0, size: 0x8, addend: 0x0, symName: __ZNSt3__129_AllocatorDestroyRangeReverseINS_9allocatorINS_12basic_stringIcNS_11char_traitsIcEENS1_IcEEEEEEPS6_EC2B8ue170006ERS7_RS8_SB_, symObjAddr: 0xB1D8, symBinAddr: 0x10000DD38, symSize: 0x20C }
  - { offsetInCU: 0xB646, offset: 0xB646, size: 0x8, addend: 0x0, symName: __ZNSt3__19allocatorINS_12basic_stringIcNS_11char_traitsIcEENS0_IcEEEEE9constructB8ue170006IS5_JRKS5_EEEvPT_DpOT0_, symObjAddr: 0xB3E4, symBinAddr: 0x10000DF44, symSize: 0xEC }
  - { offsetInCU: 0xB69B, offset: 0xB69B, size: 0x8, addend: 0x0, symName: __ZNSt3__128__exception_guard_exceptionsINS_29_AllocatorDestroyRangeReverseINS_9allocatorINS_12basic_stringIcNS_11char_traitsIcEENS2_IcEEEEEEPS7_EEED2B8ue170006Ev, symObjAddr: 0xB4D0, symBinAddr: 0x10000E030, symSize: 0x17C }
  - { offsetInCU: 0xB6C4, offset: 0xB6C4, size: 0x8, addend: 0x0, symName: __ZNKSt3__129_AllocatorDestroyRangeReverseINS_9allocatorINS_12basic_stringIcNS_11char_traitsIcEENS1_IcEEEEEEPS6_EclB8ue170006Ev, symObjAddr: 0xB64C, symBinAddr: 0x10000E1AC, symSize: 0x40C }
  - { offsetInCU: 0xB6EA, offset: 0xB6EA, size: 0x8, addend: 0x0, symName: __ZNSt3__116reverse_iteratorIPNS_12basic_stringIcNS_11char_traitsIcEENS_9allocatorIcEEEEEC1B8ue170006ES7_, symObjAddr: 0xBD34, symBinAddr: 0x10000E894, symSize: 0x80 }
  - { offsetInCU: 0xB721, offset: 0xB721, size: 0x8, addend: 0x0, symName: __ZNSt3__116allocator_traitsINS_9allocatorINS_12basic_stringIcNS_11char_traitsIcEENS1_IcEEEEEEE7destroyB8ue170006IS6_vEEvRS7_PT_, symObjAddr: 0xBE50, symBinAddr: 0x10000E9B0, symSize: 0x2C }
  - { offsetInCU: 0xB75E, offset: 0xB75E, size: 0x8, addend: 0x0, symName: __ZNSt3__116reverse_iteratorIPNS_12basic_stringIcNS_11char_traitsIcEENS_9allocatorIcEEEEEppB8ue170006Ev, symObjAddr: 0xBEE8, symBinAddr: 0x10000EA48, symSize: 0x1B0 }
  - { offsetInCU: 0xB783, offset: 0xB783, size: 0x8, addend: 0x0, symName: __ZNKSt3__116reverse_iteratorIPNS_12basic_stringIcNS_11char_traitsIcEENS_9allocatorIcEEEEE4baseB8ue170006Ev, symObjAddr: 0xC098, symBinAddr: 0x10000EBF8, symSize: 0xB0 }
  - { offsetInCU: 0xB7A8, offset: 0xB7A8, size: 0x8, addend: 0x0, symName: __ZNSt3__19allocatorINS_12basic_stringIcNS_11char_traitsIcEENS0_IcEEEEE7destroyB8ue170006EPS5_, symObjAddr: 0xC148, symBinAddr: 0x10000ECA8, symSize: 0x9C }
  - { offsetInCU: 0xB7E0, offset: 0xB7E0, size: 0x8, addend: 0x0, symName: __ZNSt3__119__to_address_helperINS_16reverse_iteratorIPNS_12basic_stringIcNS_11char_traitsIcEENS_9allocatorIcEEEEEEvE6__callB8ue170006ERKS9_, symObjAddr: 0xC1E4, symBinAddr: 0x10000ED44, symSize: 0x70 }
  - { offsetInCU: 0xB803, offset: 0xB803, size: 0x8, addend: 0x0, symName: __ZNKSt3__116reverse_iteratorIPNS_12basic_stringIcNS_11char_traitsIcEENS_9allocatorIcEEEEEptB8ue170006Ev, symObjAddr: 0xC254, symBinAddr: 0x10000EDB4, symSize: 0x6C }
  - { offsetInCU: 0xB828, offset: 0xB828, size: 0x8, addend: 0x0, symName: __ZNKSt3__116reverse_iteratorIPNS_12basic_stringIcNS_11char_traitsIcEENS_9allocatorIcEEEEEdeB8ue170006Ev, symObjAddr: 0xC2C0, symBinAddr: 0x10000EE20, symSize: 0x184 }
  - { offsetInCU: 0xB85B, offset: 0xB85B, size: 0x8, addend: 0x0, symName: __ZNSt3__116reverse_iteratorIPNS_12basic_stringIcNS_11char_traitsIcEENS_9allocatorIcEEEEEC2B8ue170006ES7_, symObjAddr: 0xC444, symBinAddr: 0x10000EFA4, symSize: 0x10C }
  - { offsetInCU: 0xB892, offset: 0xB892, size: 0x8, addend: 0x0, symName: __ZNSt3__118__unwrap_iter_implIPNS_12basic_stringIcNS_11char_traitsIcEENS_9allocatorIcEEEELb1EE8__unwrapB8ue170006ES7_, symObjAddr: 0xC550, symBinAddr: 0x10000F0B0, symSize: 0x24 }
  - { offsetInCU: 0xB8B5, offset: 0xB8B5, size: 0x8, addend: 0x0, symName: __ZNSt3__118__unwrap_iter_implIPNS_12basic_stringIcNS_11char_traitsIcEENS_9allocatorIcEEEELb1EE8__rewrapB8ue170006ES7_S7_, symObjAddr: 0xC574, symBinAddr: 0x10000F0D4, symSize: 0x140 }
  - { offsetInCU: 0xB8E6, offset: 0xB8E6, size: 0x8, addend: 0x0, symName: __ZNSt3__16vectorINS_12basic_stringIcNS_11char_traitsIcEENS_9allocatorIcEEEENS4_IS6_EEE21_ConstructTransactionD2B8ue170006Ev, symObjAddr: 0xC6B4, symBinAddr: 0x10000F214, symSize: 0x390 }
  - { offsetInCU: 0xB90F, offset: 0xB90F, size: 0x8, addend: 0x0, symName: __ZNKSt3__16vectorINS_12basic_stringIcNS_11char_traitsIcEENS_9allocatorIcEEEENS4_IS6_EEE17__annotate_shrinkB8ue170006Em, symObjAddr: 0xCA44, symBinAddr: 0x10000F5A4, symSize: 0x378 }
  - { offsetInCU: 0xB943, offset: 0xB943, size: 0x8, addend: 0x0, symName: __ZNSt3__128__exception_guard_exceptionsINS_6vectorINS_12basic_stringIcNS_11char_traitsIcEENS_9allocatorIcEEEENS5_IS7_EEE16__destroy_vectorEED2B8ue170006Ev, symObjAddr: 0xCDBC, symBinAddr: 0x10000F91C, symSize: 0x17C }
  - { offsetInCU: 0xB96C, offset: 0xB96C, size: 0x8, addend: 0x0, symName: __ZNSt3__16vectorINS_12basic_stringIcNS_11char_traitsIcEENS_9allocatorIcEEEENS4_IS6_EEE16__destroy_vectorclB8ue170006Ev, symObjAddr: 0xCF38, symBinAddr: 0x10000FA98, symSize: 0x43C }
  - { offsetInCU: 0xB991, offset: 0xB991, size: 0x8, addend: 0x0, symName: __ZNSt3__16vectorINS_12basic_stringIcNS_11char_traitsIcEENS_9allocatorIcEEEENS4_IS6_EEE7__clearB8ue170006Ev, symObjAddr: 0xD374, symBinAddr: 0x10000FED4, symSize: 0xB0 }
  - { offsetInCU: 0xB9B6, offset: 0xB9B6, size: 0x8, addend: 0x0, symName: __ZNKSt3__16vectorINS_12basic_stringIcNS_11char_traitsIcEENS_9allocatorIcEEEENS4_IS6_EEE17__annotate_deleteB8ue170006Ev, symObjAddr: 0xD424, symBinAddr: 0x10000FF84, symSize: 0x388 }
  - { offsetInCU: 0xB9DB, offset: 0xB9DB, size: 0x8, addend: 0x0, symName: __ZNSt3__116allocator_traitsINS_9allocatorINS_12basic_stringIcNS_11char_traitsIcEENS1_IcEEEEEEE10deallocateB8ue170006ERS7_PS6_m, symObjAddr: 0xD7AC, symBinAddr: 0x10001030C, symSize: 0x34 }
  - { offsetInCU: 0xBA1D, offset: 0xBA1D, size: 0x8, addend: 0x0, symName: __ZNSt3__16vectorINS_12basic_stringIcNS_11char_traitsIcEENS_9allocatorIcEEEENS4_IS6_EEE22__base_destruct_at_endB8ue170006EPS6_, symObjAddr: 0xD7E0, symBinAddr: 0x100010340, symSize: 0x1FC }
  - { offsetInCU: 0xBA60, offset: 0xBA60, size: 0x8, addend: 0x0, symName: __ZNSt3__19allocatorINS_12basic_stringIcNS_11char_traitsIcEENS0_IcEEEEE10deallocateB8ue170006EPS5_m, symObjAddr: 0xD9DC, symBinAddr: 0x10001053C, symSize: 0x7C }
  - { offsetInCU: 0xBAA1, offset: 0xBAA1, size: 0x8, addend: 0x0, symName: __ZNSt3__16vectorINS_12basic_stringIcNS_11char_traitsIcEENS_9allocatorIcEEEENS4_IS6_EEED2B8ue170006Ev, symObjAddr: 0xDB60, symBinAddr: 0x1000106C0, symSize: 0x294 }
  - { offsetInCU: 0xBAE9, offset: 0xBAE9, size: 0x8, addend: 0x0, symName: __ZNKSt3__113basic_ostreamIcNS_11char_traitsIcEEE6sentrycvbB8ue170006Ev, symObjAddr: 0xEE30, symBinAddr: 0x100011990, symSize: 0x104 }
  - { offsetInCU: 0xBB0E, offset: 0xBB0E, size: 0x8, addend: 0x0, symName: __ZNSt3__119ostreambuf_iteratorIcNS_11char_traitsIcEEEC1B8ue170006ERNS_13basic_ostreamIcS2_EE, symObjAddr: 0xFABC, symBinAddr: 0x10001261C, symSize: 0x80 }
  - { offsetInCU: 0xBB45, offset: 0xBB45, size: 0x8, addend: 0x0, symName: __ZNKSt3__18ios_base5flagsB8ue170006Ev, symObjAddr: 0xFB3C, symBinAddr: 0x10001269C, symSize: 0x160 }
  - { offsetInCU: 0xBB6C, offset: 0xBB6C, size: 0x8, addend: 0x0, symName: __ZNKSt3__19basic_iosIcNS_11char_traitsIcEEE4fillB8ue170006Ev, symObjAddr: 0xFC9C, symBinAddr: 0x1000127FC, symSize: 0x39C }
  - { offsetInCU: 0xBB93, offset: 0xBB93, size: 0x8, addend: 0x0, symName: __ZNKSt3__119ostreambuf_iteratorIcNS_11char_traitsIcEEE6failedB8ue170006Ev, symObjAddr: 0x10038, symBinAddr: 0x100012B98, symSize: 0xB8 }
  - { offsetInCU: 0xBBB8, offset: 0xBBB8, size: 0x8, addend: 0x0, symName: __ZNSt3__19basic_iosIcNS_11char_traitsIcEEE8setstateB8ue170006Ej, symObjAddr: 0x100F0, symBinAddr: 0x100012C50, symSize: 0x128 }
  - { offsetInCU: 0xBBEC, offset: 0xBBEC, size: 0x8, addend: 0x0, symName: __ZNKSt3__18ios_base5widthB8ue170006Ev, symObjAddr: 0x10218, symBinAddr: 0x100012D78, symSize: 0x138 }
  - { offsetInCU: 0xBC13, offset: 0xBC13, size: 0x8, addend: 0x0, symName: __ZNSt3__115basic_streambufIcNS_11char_traitsIcEEE5sputnB8ue170006EPKcl, symObjAddr: 0x10350, symBinAddr: 0x100012EB0, symSize: 0x198 }
  - { offsetInCU: 0xBC54, offset: 0xBC54, size: 0x8, addend: 0x0, symName: __ZNSt3__112basic_stringIcNS_11char_traitsIcEENS_9allocatorIcEEEC1B8ue170006Emc, symObjAddr: 0x104E8, symBinAddr: 0x100013048, symSize: 0x88 }
  - { offsetInCU: 0xBC9B, offset: 0xBC9B, size: 0x8, addend: 0x0, symName: __ZNSt3__112basic_stringIcNS_11char_traitsIcEENS_9allocatorIcEEE4dataB8ue170006Ev, symObjAddr: 0x10570, symBinAddr: 0x1000130D0, symSize: 0x70 }
  - { offsetInCU: 0xBCC0, offset: 0xBCC0, size: 0x8, addend: 0x0, symName: __ZNSt3__18ios_base5widthB8ue170006El, symObjAddr: 0x105E0, symBinAddr: 0x100013140, symSize: 0x1F8 }
  - { offsetInCU: 0xBD05, offset: 0xBD05, size: 0x8, addend: 0x0, symName: __ZNSt3__112basic_stringIcNS_11char_traitsIcEENS_9allocatorIcEEEC2B8ue170006Emc, symObjAddr: 0x107D8, symBinAddr: 0x100013338, symSize: 0x26C }
  - { offsetInCU: 0xBD4F, offset: 0xBD4F, size: 0x8, addend: 0x0, symName: __ZNSt3__112basic_stringIcNS_11char_traitsIcEENS_9allocatorIcEEE13__get_pointerB8ue170006Ev, symObjAddr: 0x10A58, symBinAddr: 0x1000135B8, symSize: 0x98 }
  - { offsetInCU: 0xBD74, offset: 0xBD74, size: 0x8, addend: 0x0, symName: __ZNKSt3__112basic_stringIcNS_11char_traitsIcEENS_9allocatorIcEEE9__is_longB8ue170006Ev, symObjAddr: 0x10AF0, symBinAddr: 0x100013650, symSize: 0x1FC }
  - { offsetInCU: 0xBD99, offset: 0xBD99, size: 0x8, addend: 0x0, symName: __ZNSt3__112basic_stringIcNS_11char_traitsIcEENS_9allocatorIcEEE18__get_long_pointerB8ue170006Ev, symObjAddr: 0x10CEC, symBinAddr: 0x10001384C, symSize: 0x208 }
  - { offsetInCU: 0xBDBE, offset: 0xBDBE, size: 0x8, addend: 0x0, symName: __ZNSt3__112basic_stringIcNS_11char_traitsIcEENS_9allocatorIcEEE19__get_short_pointerB8ue170006Ev, symObjAddr: 0x10EF4, symBinAddr: 0x100013A54, symSize: 0x1CC }
  - { offsetInCU: 0xBDE3, offset: 0xBDE3, size: 0x8, addend: 0x0, symName: __ZNKSt3__117__compressed_pairINS_12basic_stringIcNS_11char_traitsIcEENS_9allocatorIcEEE5__repES5_E5firstB8ue170006Ev, symObjAddr: 0x110C0, symBinAddr: 0x100013C20, symSize: 0x124 }
  - { offsetInCU: 0xBE08, offset: 0xBE08, size: 0x8, addend: 0x0, symName: __ZNKSt3__122__compressed_pair_elemINS_12basic_stringIcNS_11char_traitsIcEENS_9allocatorIcEEE5__repELi0ELb0EE5__getB8ue170006Ev, symObjAddr: 0x111E4, symBinAddr: 0x100013D44, symSize: 0xAC }
  - { offsetInCU: 0xBE2D, offset: 0xBE2D, size: 0x8, addend: 0x0, symName: __ZNSt3__117__compressed_pairINS_12basic_stringIcNS_11char_traitsIcEENS_9allocatorIcEEE5__repES5_E5firstB8ue170006Ev, symObjAddr: 0x11290, symBinAddr: 0x100013DF0, symSize: 0x124 }
  - { offsetInCU: 0xBE52, offset: 0xBE52, size: 0x8, addend: 0x0, symName: __ZNSt3__122__compressed_pair_elemINS_12basic_stringIcNS_11char_traitsIcEENS_9allocatorIcEEE5__repELi0ELb0EE5__getB8ue170006Ev, symObjAddr: 0x113B4, symBinAddr: 0x100013F14, symSize: 0xAC }
  - { offsetInCU: 0xBE77, offset: 0xBE77, size: 0x8, addend: 0x0, symName: __ZNSt3__114pointer_traitsIPcE10pointer_toB8ue170006ERc, symObjAddr: 0x11460, symBinAddr: 0x100013FC0, symSize: 0x14 }
  - { offsetInCU: 0xBE9A, offset: 0xBE9A, size: 0x8, addend: 0x0, symName: __ZNSt3__119ostreambuf_iteratorIcNS_11char_traitsIcEEEC2B8ue170006ERNS_13basic_ostreamIcS2_EE, symObjAddr: 0x11474, symBinAddr: 0x100013FD4, symSize: 0x2E8 }
  - { offsetInCU: 0xBED1, offset: 0xBED1, size: 0x8, addend: 0x0, symName: __ZNKSt3__19basic_iosIcNS_11char_traitsIcEEE5rdbufB8ue170006Ev, symObjAddr: 0x1175C, symBinAddr: 0x1000142BC, symSize: 0x120 }
  - { offsetInCU: 0xBEF8, offset: 0xBEF8, size: 0x8, addend: 0x0, symName: __ZNKSt3__18ios_base5rdbufB8ue170006Ev, symObjAddr: 0x1187C, symBinAddr: 0x1000143DC, symSize: 0x138 }
  - { offsetInCU: 0xBF1D, offset: 0xBF1D, size: 0x8, addend: 0x0, symName: __ZNSt3__111char_traitsIcE11eq_int_typeB8ue170006Eii, symObjAddr: 0x119B4, symBinAddr: 0x100014514, symSize: 0x28 }
  - { offsetInCU: 0xBF50, offset: 0xBF50, size: 0x8, addend: 0x0, symName: __ZNSt3__111char_traitsIcE3eofB8ue170006Ev, symObjAddr: 0x119DC, symBinAddr: 0x10001453C, symSize: 0x8 }
  - { offsetInCU: 0xBF64, offset: 0xBF64, size: 0x8, addend: 0x0, symName: __ZNKSt3__19basic_iosIcNS_11char_traitsIcEEE5widenB8ue170006Ec, symObjAddr: 0x119E4, symBinAddr: 0x100014544, symSize: 0x47C }
  - { offsetInCU: 0xBFD3, offset: 0xBFD3, size: 0x8, addend: 0x0, symName: __ZNKSt3__15ctypeIcE5widenB8ue170006Ec, symObjAddr: 0x11FE8, symBinAddr: 0x100014B48, symSize: 0x18C }
  - { offsetInCU: 0xC007, offset: 0xC007, size: 0x8, addend: 0x0, symName: __ZNSt3__18ios_base8setstateB8ue170006Ej, symObjAddr: 0x12174, symBinAddr: 0x100014CD4, symSize: 0x1E0 }
  - { offsetInCU: 0xC03D, offset: 0xC03D, size: 0x8, addend: 0x0, symName: __ZNSt3__112basic_stringIcNS_11char_traitsIcEENS_9allocatorIcEEE6insertB8ue170006EmRKS5_, symObjAddr: 0x12354, symBinAddr: 0x100014EB4, symSize: 0x13C }
  - { offsetInCU: 0xC080, offset: 0xC080, size: 0x8, addend: 0x0, symName: __ZNSt3__112basic_stringIcNS_11char_traitsIcEENS_9allocatorIcEEEC1B8ue170006EOS5_, symObjAddr: 0x12490, symBinAddr: 0x100014FF0, symSize: 0x80 }
  - { offsetInCU: 0xC0B8, offset: 0xC0B8, size: 0x8, addend: 0x0, symName: __ZNKSt3__112basic_stringIcNS_11char_traitsIcEENS_9allocatorIcEEE4dataB8ue170006Ev, symObjAddr: 0x12510, symBinAddr: 0x100015070, symSize: 0x70 }
  - { offsetInCU: 0xC0DD, offset: 0xC0DD, size: 0x8, addend: 0x0, symName: __ZNKSt3__112basic_stringIcNS_11char_traitsIcEENS_9allocatorIcEEE4sizeB8ue170006Ev, symObjAddr: 0x12580, symBinAddr: 0x1000150E0, symSize: 0x98 }
  - { offsetInCU: 0xC102, offset: 0xC102, size: 0x8, addend: 0x0, symName: __ZNKSt3__112basic_stringIcNS_11char_traitsIcEENS_9allocatorIcEEE13__get_pointerB8ue170006Ev, symObjAddr: 0x1262C, symBinAddr: 0x10001518C, symSize: 0x98 }
  - { offsetInCU: 0xC127, offset: 0xC127, size: 0x8, addend: 0x0, symName: __ZNKSt3__112basic_stringIcNS_11char_traitsIcEENS_9allocatorIcEEE18__get_long_pointerB8ue170006Ev, symObjAddr: 0x126C4, symBinAddr: 0x100015224, symSize: 0x208 }
  - { offsetInCU: 0xC14C, offset: 0xC14C, size: 0x8, addend: 0x0, symName: __ZNKSt3__112basic_stringIcNS_11char_traitsIcEENS_9allocatorIcEEE19__get_short_pointerB8ue170006Ev, symObjAddr: 0x128CC, symBinAddr: 0x10001542C, symSize: 0x1CC }
  - { offsetInCU: 0xC171, offset: 0xC171, size: 0x8, addend: 0x0, symName: __ZNSt3__114pointer_traitsIPKcE10pointer_toB8ue170006ERS1_, symObjAddr: 0x12A98, symBinAddr: 0x1000155F8, symSize: 0x14 }
  - { offsetInCU: 0xC194, offset: 0xC194, size: 0x8, addend: 0x0, symName: __ZNKSt3__112basic_stringIcNS_11char_traitsIcEENS_9allocatorIcEEE15__get_long_sizeB8ue170006Ev, symObjAddr: 0x12AAC, symBinAddr: 0x10001560C, symSize: 0x210 }
  - { offsetInCU: 0xC1B9, offset: 0xC1B9, size: 0x8, addend: 0x0, symName: __ZNKSt3__112basic_stringIcNS_11char_traitsIcEENS_9allocatorIcEEE16__get_short_sizeB8ue170006Ev, symObjAddr: 0x12CBC, symBinAddr: 0x10001581C, symSize: 0x1F8 }
  - { offsetInCU: 0xC1DE, offset: 0xC1DE, size: 0x8, addend: 0x0, symName: __ZNSt3__112basic_stringIcNS_11char_traitsIcEENS_9allocatorIcEEEC2B8ue170006EOS5_, symObjAddr: 0x12EB4, symBinAddr: 0x100015A14, symSize: 0xCC }
  - { offsetInCU: 0xC216, offset: 0xC216, size: 0x8, addend: 0x0, symName: __ZNSt3__112basic_stringIcNS_11char_traitsIcEENS_9allocatorIcEEE14__default_initB8ue170006Ev, symObjAddr: 0x12F80, symBinAddr: 0x100015AE0, symSize: 0x2B4 }
  - { offsetInCU: 0x3B, offset: 0xC32F, size: 0x8, addend: 0x0, symName: _.str, symObjAddr: 0xB42C0, symBinAddr: 0x10009B420, symSize: 0x0 }
  - { offsetInCU: 0x6B, offset: 0xC35F, size: 0x8, addend: 0x0, symName: _.str.1, symObjAddr: 0xB42E0, symBinAddr: 0x10009B440, symSize: 0x0 }
  - { offsetInCU: 0x88, offset: 0xC37C, size: 0x8, addend: 0x0, symName: _.str.2, symObjAddr: 0xB4300, symBinAddr: 0x10009B460, symSize: 0x0 }
  - { offsetInCU: 0xA5, offset: 0xC399, size: 0x8, addend: 0x0, symName: _.str.3, symObjAddr: 0xB4320, symBinAddr: 0x10009B480, symSize: 0x0 }
  - { offsetInCU: 0xC2, offset: 0xC3B6, size: 0x8, addend: 0x0, symName: _.str.4, symObjAddr: 0xB4340, symBinAddr: 0x10009B4A0, symSize: 0x0 }
  - { offsetInCU: 0xDF, offset: 0xC3D3, size: 0x8, addend: 0x0, symName: _.str.5, symObjAddr: 0xB4360, symBinAddr: 0x10009B4C0, symSize: 0x0 }
  - { offsetInCU: 0xFC, offset: 0xC3F0, size: 0x8, addend: 0x0, symName: _.str.6, symObjAddr: 0xB4380, symBinAddr: 0x10009B4E0, symSize: 0x0 }
  - { offsetInCU: 0x119, offset: 0xC40D, size: 0x8, addend: 0x0, symName: _.str.7, symObjAddr: 0xB43A0, symBinAddr: 0x10009B500, symSize: 0x0 }
  - { offsetInCU: 0x12A, offset: 0xC41E, size: 0x8, addend: 0x0, symName: _.str.8, symObjAddr: 0xB43C0, symBinAddr: 0x10009B520, symSize: 0x0 }
  - { offsetInCU: 0x13B, offset: 0xC42F, size: 0x8, addend: 0x0, symName: _.str.9, symObjAddr: 0xB43E0, symBinAddr: 0x10009B540, symSize: 0x0 }
  - { offsetInCU: 0x158, offset: 0xC44C, size: 0x8, addend: 0x0, symName: _.str.10, symObjAddr: 0xB4400, symBinAddr: 0x10009B560, symSize: 0x0 }
  - { offsetInCU: 0x169, offset: 0xC45D, size: 0x8, addend: 0x0, symName: _.str.11, symObjAddr: 0xB4420, symBinAddr: 0x10009B580, symSize: 0x0 }
  - { offsetInCU: 0x17A, offset: 0xC46E, size: 0x8, addend: 0x0, symName: _.str.12, symObjAddr: 0xB4440, symBinAddr: 0x10009B5A0, symSize: 0x0 }
  - { offsetInCU: 0x197, offset: 0xC48B, size: 0x8, addend: 0x0, symName: _.str.13, symObjAddr: 0xB4480, symBinAddr: 0x10009B5E0, symSize: 0x0 }
  - { offsetInCU: 0x1A8, offset: 0xC49C, size: 0x8, addend: 0x0, symName: _.str.14, symObjAddr: 0xB44A0, symBinAddr: 0x10009B600, symSize: 0x0 }
  - { offsetInCU: 0x1C5, offset: 0xC4B9, size: 0x8, addend: 0x0, symName: _.str.15, symObjAddr: 0xB44E0, symBinAddr: 0x10009B640, symSize: 0x0 }
  - { offsetInCU: 0x1E3, offset: 0xC4D7, size: 0x8, addend: 0x0, symName: _.str.16, symObjAddr: 0xB4500, symBinAddr: 0x10009B660, symSize: 0x0 }
  - { offsetInCU: 0x201, offset: 0xC4F5, size: 0x8, addend: 0x0, symName: _.str.17, symObjAddr: 0xB4540, symBinAddr: 0x10009B6A0, symSize: 0x0 }
  - { offsetInCU: 0x21F, offset: 0xC513, size: 0x8, addend: 0x0, symName: _.str.18, symObjAddr: 0xB45A0, symBinAddr: 0x10009B700, symSize: 0x0 }
  - { offsetInCU: 0x23D, offset: 0xC531, size: 0x8, addend: 0x0, symName: _.str.19, symObjAddr: 0xB45E0, symBinAddr: 0x10009B740, symSize: 0x0 }
  - { offsetInCU: 0x25B, offset: 0xC54F, size: 0x8, addend: 0x0, symName: _.str.20, symObjAddr: 0xB4600, symBinAddr: 0x10009B760, symSize: 0x0 }
  - { offsetInCU: 0x26D, offset: 0xC561, size: 0x8, addend: 0x0, symName: _.str.21, symObjAddr: 0xB4640, symBinAddr: 0x10009B7A0, symSize: 0x0 }
  - { offsetInCU: 0x27F, offset: 0xC573, size: 0x8, addend: 0x0, symName: _.str.22, symObjAddr: 0xB4660, symBinAddr: 0x10009B7C0, symSize: 0x0 }
  - { offsetInCU: 0x29D, offset: 0xC591, size: 0x8, addend: 0x0, symName: _.str.23, symObjAddr: 0xB46A0, symBinAddr: 0x10009B800, symSize: 0x0 }
  - { offsetInCU: 0x2AF, offset: 0xC5A3, size: 0x8, addend: 0x0, symName: _.str.24, symObjAddr: 0xB46E0, symBinAddr: 0x10009B840, symSize: 0x0 }
  - { offsetInCU: 0x2C1, offset: 0xC5B5, size: 0x8, addend: 0x0, symName: _.str.25, symObjAddr: 0xB4720, symBinAddr: 0x10009B880, symSize: 0x0 }
  - { offsetInCU: 0x2DF, offset: 0xC5D3, size: 0x8, addend: 0x0, symName: _.str.26, symObjAddr: 0xB4760, symBinAddr: 0x10009B8C0, symSize: 0x0 }
  - { offsetInCU: 0x2F1, offset: 0xC5E5, size: 0x8, addend: 0x0, symName: _.str.53, symObjAddr: 0xB47A0, symBinAddr: 0x10009B900, symSize: 0x0 }
  - { offsetInCU: 0xD4EA, offset: 0x197DE, size: 0x8, addend: 0x0, symName: __ZNSt3__117__floyd_sift_downB8ue170006INS_17_ClassicAlgPolicyERNS_4lessIjEENS_11__wrap_iterIPjEEEET1_S8_OT0_NS_15iterator_traitsIS8_E15difference_typeE, symObjAddr: 0x75E18, symBinAddr: 0x100081808, symSize: 0x7FC }
  - { offsetInCU: 0xD5C3, offset: 0x198B7, size: 0x8, addend: 0x0, symName: __ZNSt3__117__floyd_sift_downB8ue170006INS_17_ClassicAlgPolicyERNS_7greaterIjEENS_11__wrap_iterIPjEEEET1_S8_OT0_NS_15iterator_traitsIS8_E15difference_typeE, symObjAddr: 0x77520, symBinAddr: 0x100082F10, symSize: 0x7FC }
  - { offsetInCU: 0xD66A, offset: 0x1995E, size: 0x8, addend: 0x0, symName: __ZNSt3__117__floyd_sift_downB8ue170006INS_17_ClassicAlgPolicyER10ComparatorNS_11__wrap_iterIPP7ZombiesEEEET1_S9_OT0_NS_15iterator_traitsIS9_E15difference_typeE, symObjAddr: 0x789DC, symBinAddr: 0x1000843CC, symSize: 0x81C }
  - { offsetInCU: 0xDC40, offset: 0x19F34, size: 0x8, addend: 0x0, symName: __ZNSt3__117__floyd_sift_downB8ue170006INS_17_ClassicAlgPolicyER11LeastActiveNS_11__wrap_iterIP7ZombiesEEEET1_S8_OT0_NS_15iterator_traitsIS8_E15difference_typeE, symObjAddr: 0x85980, symBinAddr: 0x100091370, symSize: 0x740 }
  - { offsetInCU: 0xDD19, offset: 0x1A00D, size: 0x8, addend: 0x0, symName: __ZNSt3__117__floyd_sift_downB8ue170006INS_17_ClassicAlgPolicyER11MostActive2NS_11__wrap_iterIP7ZombiesEEEET1_S8_OT0_NS_15iterator_traitsIS8_E15difference_typeE, symObjAddr: 0x884E0, symBinAddr: 0x100093ED0, symSize: 0x740 }
  - { offsetInCU: 0xDDC0, offset: 0x1A0B4, size: 0x8, addend: 0x0, symName: __ZNSt3__117__floyd_sift_downB8ue170006INS_17_ClassicAlgPolicyER10MostActiveNS_11__wrap_iterIP7ZombiesEEEET1_S8_OT0_NS_15iterator_traitsIS8_E15difference_typeE, symObjAddr: 0x8AC00, symBinAddr: 0x1000965F0, symSize: 0x740 }
  - { offsetInCU: 0xDE67, offset: 0x1A15B, size: 0x8, addend: 0x0, symName: __ZNSt3__117__floyd_sift_downB8ue170006INS_17_ClassicAlgPolicyER12LeastActive2NS_11__wrap_iterIP7ZombiesEEEET1_S8_OT0_NS_15iterator_traitsIS8_E15difference_typeE, symObjAddr: 0x8D398, symBinAddr: 0x100098D88, symSize: 0x740 }
  - { offsetInCU: 0xF69F, offset: 0x1B993, size: 0x8, addend: 0x0, symName: __ZNSt3__17getlineB8ue170006IcNS_11char_traitsIcEENS_9allocatorIcEEEERNS_13basic_istreamIT_T0_EES9_RNS_12basic_stringIS6_S7_T1_EE, symObjAddr: 0x156C, symBinAddr: 0x100017C54, symSize: 0x330 }
  - { offsetInCU: 0xF6F7, offset: 0x1B9EB, size: 0x8, addend: 0x0, symName: __ZNSt3__1rsB8ue170006IcNS_11char_traitsIcEENS_9allocatorIcEEEERNS_13basic_istreamIT_T0_EES9_RNS_12basic_stringIS6_S7_T1_EE, symObjAddr: 0x189C, symBinAddr: 0x100017F84, symSize: 0x18B8 }
  - { offsetInCU: 0xF7D0, offset: 0x1BAC4, size: 0x8, addend: 0x0, symName: __ZNSt3__1lsB8ue170006IcNS_11char_traitsIcEENS_9allocatorIcEEEERNS_13basic_ostreamIT_T0_EES9_RKNS_12basic_stringIS6_S7_T1_EE, symObjAddr: 0x6254, symBinAddr: 0x10001C86C, symSize: 0x12C }
  - { offsetInCU: 0xF828, offset: 0x1BB1C, size: 0x8, addend: 0x0, symName: __ZNSt3__1lsB8ue170006INS_11char_traitsIcEEEERNS_13basic_ostreamIcT_EES6_c, symObjAddr: 0xB034, symBinAddr: 0x10002164C, symSize: 0x2AC }
  - { offsetInCU: 0xF873, offset: 0x1BB67, size: 0x8, addend: 0x0, symName: __ZNSt3__13minB8ue170006IjEERKT_S3_S3_, symObjAddr: 0xB7D4, symBinAddr: 0x100021DEC, symSize: 0x104 }
  - { offsetInCU: 0xF8B6, offset: 0x1BBAA, size: 0x8, addend: 0x0, symName: __ZNSt3__1ltB8ue170006IcNS_11char_traitsIcEENS_9allocatorIcEEEEbRKNS_12basic_stringIT_T0_T1_EESB_, symObjAddr: 0xE2D0, symBinAddr: 0x1000247F0, symSize: 0xAC }
  - { offsetInCU: 0xFD06, offset: 0x1BFFA, size: 0x8, addend: 0x0, symName: __ZNSt3__13minB8ue170006IjNS_6__lessIvvEEEERKT_S5_S5_T0_, symObjAddr: 0x1457C, symBinAddr: 0x10002A21C, symSize: 0x2C0 }
  - { offsetInCU: 0xFDDC, offset: 0x1C0D0, size: 0x8, addend: 0x0, symName: __ZNSt3__112__to_addressB8ue170006I7ZombiesEEPT_S3_, symObjAddr: 0x15B80, symBinAddr: 0x10002B820, symSize: 0x14 }
  - { offsetInCU: 0xFE11, offset: 0x1C105, size: 0x8, addend: 0x0, symName: __ZNSt3__1neB8ue170006ERKNS_16__deque_iteratorI7ZombiesPS1_RS1_PS2_lLl102EEES7_, symObjAddr: 0x1F764, symBinAddr: 0x100034EE8, symSize: 0xC4 }
  - { offsetInCU: 0xFE4E, offset: 0x1C142, size: 0x8, addend: 0x0, symName: __ZNSt3__1eqB8ue170006ERKNS_16__deque_iteratorI7ZombiesPS1_RS1_PS2_lLl102EEES7_, symObjAddr: 0x20368, symBinAddr: 0x100035AEC, symSize: 0x124 }
  - { offsetInCU: 0xFE8B, offset: 0x1C17F, size: 0x8, addend: 0x0, symName: __ZNSt3__112__to_addressB8ue170006IP7ZombiesEEPT_S4_, symObjAddr: 0x21428, symBinAddr: 0x100036BAC, symSize: 0x14 }
  - { offsetInCU: 0xFEC0, offset: 0x1C1B4, size: 0x8, addend: 0x0, symName: __ZNSt3__112__to_addressB8ue170006IjEEPT_S2_, symObjAddr: 0x243B8, symBinAddr: 0x100039AC4, symSize: 0x14 }
  - { offsetInCU: 0xFEF5, offset: 0x1C1E9, size: 0x8, addend: 0x0, symName: __ZNSt3__1neB8ue170006ERKNS_16__deque_iteratorINS_12basic_stringIcNS_11char_traitsIcEENS_9allocatorIcEEEEPS6_RS6_PS7_lLl170EEESC_, symObjAddr: 0x266E8, symBinAddr: 0x10003BDC0, symSize: 0xC4 }
  - { offsetInCU: 0xFF32, offset: 0x1C226, size: 0x8, addend: 0x0, symName: __ZNSt3__1eqB8ue170006ERKNS_16__deque_iteratorINS_12basic_stringIcNS_11char_traitsIcEENS_9allocatorIcEEEEPS6_RS6_PS7_lLl170EEESC_, symObjAddr: 0x27318, symBinAddr: 0x10003C9C4, symSize: 0x124 }
  - { offsetInCU: 0xFF6F, offset: 0x1C263, size: 0x8, addend: 0x0, symName: __ZNSt3__112__to_addressB8ue170006IPNS_12basic_stringIcNS_11char_traitsIcEENS_9allocatorIcEEEEEEPT_S9_, symObjAddr: 0x284B8, symBinAddr: 0x10003D9D8, symSize: 0x14 }
  - { offsetInCU: 0xFFA4, offset: 0x1C298, size: 0x8, addend: 0x0, symName: __ZNSt3__17getlineB8ue170006IcNS_11char_traitsIcEENS_9allocatorIcEEEERNS_13basic_istreamIT_T0_EES9_RNS_12basic_stringIS6_S7_T1_EES6_, symObjAddr: 0x2C76C, symBinAddr: 0x10003F00C, symSize: 0xEAC }
  - { offsetInCU: 0x107ED, offset: 0x1CAE1, size: 0x8, addend: 0x0, symName: __ZNSt3__13maxB8ue170006ImEERKT_S3_S3_, symObjAddr: 0x35A8C, symBinAddr: 0x100046ED8, symSize: 0x104 }
  - { offsetInCU: 0x10BD5, offset: 0x1CEC9, size: 0x8, addend: 0x0, symName: __ZNSt3__14swapB8ue170006IPP7ZombiesEENS_9enable_ifIXaasr21is_move_constructibleIT_EE5valuesr18is_move_assignableIS5_EE5valueEvE4typeERS5_S8_, symObjAddr: 0x383C4, symBinAddr: 0x100049810, symSize: 0x1C0 }
  - { offsetInCU: 0x10C26, offset: 0x1CF1A, size: 0x8, addend: 0x0, symName: __ZNSt3__14moveB8ue170006IPP7ZombiesS3_EET0_T_S5_S4_, symObjAddr: 0x38874, symBinAddr: 0x100049CC0, symSize: 0x2B4 }
  - { offsetInCU: 0x10CA0, offset: 0x1CF94, size: 0x8, addend: 0x0, symName: __ZNSt3__16__moveB8ue170006INS_17_ClassicAlgPolicyEPP7ZombiesS4_S4_EENS_4pairIT0_T2_EES6_T1_S7_, symObjAddr: 0x39048, symBinAddr: 0x10004A494, symSize: 0x22C }
  - { offsetInCU: 0x10D0F, offset: 0x1D003, size: 0x8, addend: 0x0, symName: __ZNSt3__123__dispatch_copy_or_moveB8ue170006INS_17_ClassicAlgPolicyENS_11__move_loopIS1_EENS_14__move_trivialEPP7ZombiesS7_S7_EENS_4pairIT2_T4_EES9_T3_SA_, symObjAddr: 0x39274, symBinAddr: 0x10004A6C0, symSize: 0x22C }
  - { offsetInCU: 0x10D90, offset: 0x1D084, size: 0x8, addend: 0x0, symName: __ZNSt3__121__unwrap_and_dispatchB8ue170006INS_10__overloadINS_11__move_loopINS_17_ClassicAlgPolicyEEENS_14__move_trivialEEEPP7ZombiesS9_S9_Li0EEENS_4pairIT0_T2_EESB_T1_SC_, symObjAddr: 0x394A0, symBinAddr: 0x10004A8EC, symSize: 0x634 }
  - { offsetInCU: 0x10E29, offset: 0x1D11D, size: 0x8, addend: 0x0, symName: __ZNSt3__114__unwrap_rangeB8ue170006IPP7ZombiesS3_EENS_4pairIT0_S5_EET_S7_, symObjAddr: 0x39AD4, symBinAddr: 0x10004AF20, symSize: 0x350 }
  - { offsetInCU: 0x1102B, offset: 0x1D31F, size: 0x8, addend: 0x0, symName: __ZNSt3__113__unwrap_iterB8ue170006IPP7ZombiesNS_18__unwrap_iter_implIS3_Lb1EEELi0EEEDTclsrT0_8__unwrapclsr3stdE7declvalIT_EEEES7_, symObjAddr: 0x3A080, symBinAddr: 0x10004B4CC, symSize: 0x24 }
  - { offsetInCU: 0x1106F, offset: 0x1D363, size: 0x8, addend: 0x0, symName: __ZNSt3__19make_pairB8ue170006IPP7ZombiesS3_EENS_4pairINS_18__unwrap_ref_decayIT_E4typeENS5_IT0_E4typeEEEOS6_OS9_, symObjAddr: 0x3A0A4, symBinAddr: 0x10004B4F0, symSize: 0x2A0 }
  - { offsetInCU: 0x110C0, offset: 0x1D3B4, size: 0x8, addend: 0x0, symName: __ZNSt3__114__rewrap_rangeB8ue170006IPP7ZombiesS3_EET_S4_T0_, symObjAddr: 0x3A344, symBinAddr: 0x10004B790, symSize: 0x2C }
  - { offsetInCU: 0x1110C, offset: 0x1D400, size: 0x8, addend: 0x0, symName: __ZNSt3__113__rewrap_iterB8ue170006IPP7ZombiesS3_NS_18__unwrap_iter_implIS3_Lb1EEEEET_S6_T0_, symObjAddr: 0x3A370, symBinAddr: 0x10004B7BC, symSize: 0x48 }
  - { offsetInCU: 0x11161, offset: 0x1D455, size: 0x8, addend: 0x0, symName: __ZNSt3__119__copy_trivial_implB8ue170006IP7ZombiesS2_EENS_4pairIPT_PT0_EES5_S5_S7_, symObjAddr: 0x3A3B8, symBinAddr: 0x10004B804, symSize: 0x480 }
  - { offsetInCU: 0x111D0, offset: 0x1D4C4, size: 0x8, addend: 0x0, symName: __ZNSt3__119__constexpr_memmoveB8ue170006IP7ZombiesS2_Li0EEEPT_S4_PT0_NS_15__element_countE, symObjAddr: 0x3A838, symBinAddr: 0x10004BC84, symSize: 0x64 }
  - { offsetInCU: 0x1123E, offset: 0x1D532, size: 0x8, addend: 0x0, symName: __ZNSt3__19make_pairB8ue170006IRPP7ZombiesS3_EENS_4pairINS_18__unwrap_ref_decayIT_E4typeENS6_IT0_E4typeEEEOS7_OSA_, symObjAddr: 0x3A89C, symBinAddr: 0x10004BCE8, symSize: 0x2A0 }
  - { offsetInCU: 0x112E2, offset: 0x1D5D6, size: 0x8, addend: 0x0, symName: __ZNSt3__18distanceB8ue170006INS_13move_iteratorIPP7ZombiesEEEENS_15iterator_traitsIT_E15difference_typeES7_S7_, symObjAddr: 0x3B7DC, symBinAddr: 0x10004CC28, symSize: 0x350 }
  - { offsetInCU: 0x1132D, offset: 0x1D621, size: 0x8, addend: 0x0, symName: __ZNSt3__110__distanceB8ue170006INS_13move_iteratorIPP7ZombiesEEEENS_15iterator_traitsIT_E15difference_typeES7_S7_NS_26random_access_iterator_tagE, symObjAddr: 0x3C820, symBinAddr: 0x10004DC6C, symSize: 0x274 }
  - { offsetInCU: 0x11384, offset: 0x1D678, size: 0x8, addend: 0x0, symName: __ZNSt3__1miB8ue170006IPP7ZombiesS3_EEDTmicldtfp_4baseEcldtfp0_4baseEERKNS_13move_iteratorIT_EERKNS5_IT0_EE, symObjAddr: 0x3CA94, symBinAddr: 0x10004DEE0, symSize: 0x9C }
  - { offsetInCU: 0x113D3, offset: 0x1D6C7, size: 0x8, addend: 0x0, symName: __ZNSt3__113move_backwardB8ue170006IPP7ZombiesS3_EET0_T_S5_S4_, symObjAddr: 0x3D0BC, symBinAddr: 0x10004E39C, symSize: 0x2B4 }
  - { offsetInCU: 0x11430, offset: 0x1D724, size: 0x8, addend: 0x0, symName: __ZNSt3__115__move_backwardB8ue170006INS_17_ClassicAlgPolicyEPP7ZombiesS4_S4_EENS_4pairIT0_T2_EES6_T1_S7_, symObjAddr: 0x3D370, symBinAddr: 0x10004E650, symSize: 0x22C }
  - { offsetInCU: 0x1149F, offset: 0x1D793, size: 0x8, addend: 0x0, symName: __ZNSt3__123__dispatch_copy_or_moveB8ue170006INS_17_ClassicAlgPolicyENS_20__move_backward_loopIS1_EENS_23__move_backward_trivialEPP7ZombiesS7_S7_EENS_4pairIT2_T4_EES9_T3_SA_, symObjAddr: 0x3D59C, symBinAddr: 0x10004E87C, symSize: 0x22C }
  - { offsetInCU: 0x11520, offset: 0x1D814, size: 0x8, addend: 0x0, symName: __ZNSt3__121__unwrap_and_dispatchB8ue170006INS_10__overloadINS_20__move_backward_loopINS_17_ClassicAlgPolicyEEENS_23__move_backward_trivialEEEPP7ZombiesS9_S9_Li0EEENS_4pairIT0_T2_EESB_T1_SC_, symObjAddr: 0x3D7C8, symBinAddr: 0x10004EAA8, symSize: 0x634 }
  - { offsetInCU: 0x1163B, offset: 0x1D92F, size: 0x8, addend: 0x0, symName: __ZNSt3__128__copy_backward_trivial_implB8ue170006IP7ZombiesS2_EENS_4pairIPT_PT0_EES5_S5_S7_, symObjAddr: 0x3E058, symBinAddr: 0x10004F338, symSize: 0x4E0 }
  - { offsetInCU: 0x116AD, offset: 0x1D9A1, size: 0x8, addend: 0x0, symName: __ZNSt3__19make_pairB8ue170006IRPP7ZombiesS4_EENS_4pairINS_18__unwrap_ref_decayIT_E4typeENS6_IT0_E4typeEEEOS7_OSA_, symObjAddr: 0x3E538, symBinAddr: 0x10004F818, symSize: 0x2A0 }
  - { offsetInCU: 0x116FE, offset: 0x1D9F2, size: 0x8, addend: 0x0, symName: __ZNSt3__13maxB8ue170006ImNS_6__lessIvvEEEERKT_S5_S5_T0_, symObjAddr: 0x3EA70, symBinAddr: 0x10004FD50, symSize: 0x2C0 }
  - { offsetInCU: 0x1175E, offset: 0x1DA52, size: 0x8, addend: 0x0, symName: __ZNSt3__119__allocate_at_leastB8ue170006INS_9allocatorIP7ZombiesEEEENS_19__allocation_resultINS_16allocator_traitsIT_E7pointerEEERS7_m, symObjAddr: 0x3F590, symBinAddr: 0x100050870, symSize: 0x28C }
  - { offsetInCU: 0x117A3, offset: 0x1DA97, size: 0x8, addend: 0x0, symName: __ZNSt3__19push_heapB8ue170006INS_11__wrap_iterIPP7ZombiesEE10ComparatorEEvT_S7_T0_, symObjAddr: 0x41C68, symBinAddr: 0x100052F48, symSize: 0x36C }
  - { offsetInCU: 0x11806, offset: 0x1DAFA, size: 0x8, addend: 0x0, symName: __ZNSt3__142__uninitialized_allocator_move_if_noexceptB8ue170006INS_9allocatorIP7ZombiesEENS_16reverse_iteratorIPS3_EES7_S3_vEET1_RT_T0_SB_S8_, symObjAddr: 0x456F8, symBinAddr: 0x10005677C, symSize: 0x4A8 }
  - { offsetInCU: 0x11891, offset: 0x1DB85, size: 0x8, addend: 0x0, symName: __ZNSt3__14moveB8ue170006INS_16reverse_iteratorIPP7ZombiesEES5_EET0_T_S7_S6_, symObjAddr: 0x46030, symBinAddr: 0x1000570B4, symSize: 0x4B0 }
  - { offsetInCU: 0x118F8, offset: 0x1DBEC, size: 0x8, addend: 0x0, symName: __ZNSt3__16__moveB8ue170006INS_17_ClassicAlgPolicyENS_16reverse_iteratorIPP7ZombiesEES6_S6_EENS_4pairIT0_T2_EES8_T1_S9_, symObjAddr: 0x464E0, symBinAddr: 0x100057564, symSize: 0x424 }
  - { offsetInCU: 0x11970, offset: 0x1DC64, size: 0x8, addend: 0x0, symName: __ZNSt3__123__dispatch_copy_or_moveB8ue170006INS_17_ClassicAlgPolicyENS_11__move_loopIS1_EENS_14__move_trivialENS_16reverse_iteratorIPP7ZombiesEES9_S9_EENS_4pairIT2_T4_EESB_T3_SC_, symObjAddr: 0x46904, symBinAddr: 0x100057988, symSize: 0x424 }
  - { offsetInCU: 0x119FA, offset: 0x1DCEE, size: 0x8, addend: 0x0, symName: __ZNSt3__121__unwrap_and_dispatchB8ue170006INS_10__overloadINS_11__move_loopINS_17_ClassicAlgPolicyEEENS_14__move_trivialEEENS_16reverse_iteratorIPP7ZombiesEESB_SB_Li0EEENS_4pairIT0_T2_EESD_T1_SE_, symObjAddr: 0x46D28, symBinAddr: 0x100057DAC, symSize: 0x880 }
  - { offsetInCU: 0x11A9E, offset: 0x1DD92, size: 0x8, addend: 0x0, symName: __ZNSt3__114__unwrap_rangeB8ue170006INS_16reverse_iteratorIPP7ZombiesEES5_EENS_4pairIT0_S7_EET_S9_, symObjAddr: 0x475A8, symBinAddr: 0x10005862C, symSize: 0x448 }
  - { offsetInCU: 0x11C60, offset: 0x1DF54, size: 0x8, addend: 0x0, symName: __ZNSt3__113__unwrap_iterB8ue170006INS_16reverse_iteratorIPP7ZombiesEENS_18__unwrap_iter_implIS5_Lb0EEELi0EEEDTclsrT0_8__unwrapclsr3stdE7declvalIT_EEEES9_, symObjAddr: 0x47E4C, symBinAddr: 0x100058ED0, symSize: 0x2EC }
  - { offsetInCU: 0x11CA8, offset: 0x1DF9C, size: 0x8, addend: 0x0, symName: __ZNSt3__19make_pairB8ue170006INS_16reverse_iteratorIPP7ZombiesEES5_EENS_4pairINS_18__unwrap_ref_decayIT_E4typeENS7_IT0_E4typeEEEOS8_OSB_, symObjAddr: 0x48138, symBinAddr: 0x1000591BC, symSize: 0x108 }
  - { offsetInCU: 0x11CF7, offset: 0x1DFEB, size: 0x8, addend: 0x0, symName: __ZNSt3__114__rewrap_rangeB8ue170006INS_16reverse_iteratorIPP7ZombiesEES5_EET_S6_T0_, symObjAddr: 0x48240, symBinAddr: 0x1000592C4, symSize: 0x3D4 }
  - { offsetInCU: 0x11D4B, offset: 0x1E03F, size: 0x8, addend: 0x0, symName: __ZNSt3__113__rewrap_iterB8ue170006INS_16reverse_iteratorIPP7ZombiesEES5_NS_18__unwrap_iter_implIS5_Lb0EEEEET_S8_T0_, symObjAddr: 0x48614, symBinAddr: 0x100059698, symSize: 0x3E8 }
  - { offsetInCU: 0x11DA8, offset: 0x1E09C, size: 0x8, addend: 0x0, symName: __ZNSt3__1neB8ue170006IPP7ZombiesS3_EEbRKNS_16reverse_iteratorIT_EERKNS4_IT0_EE, symObjAddr: 0x489FC, symBinAddr: 0x100059A80, symSize: 0x9C }
  - { offsetInCU: 0x11F72, offset: 0x1E266, size: 0x8, addend: 0x0, symName: __ZNSt3__111__push_heapB8ue170006INS_17_ClassicAlgPolicyENS_11__wrap_iterIPP7ZombiesEE10ComparatorEEvT0_S8_RT1_, symObjAddr: 0x49610, symBinAddr: 0x10005A694, symSize: 0x3A0 }
  - { offsetInCU: 0x11FEA, offset: 0x1E2DE, size: 0x8, addend: 0x0, symName: __ZNSt3__1miB8ue170006IPP7ZombiesS3_EEDTmicldtfp_4baseEcldtfp0_4baseEERKNS_11__wrap_iterIT_EERKNS5_IT0_EE, symObjAddr: 0x499B0, symBinAddr: 0x10005AA34, symSize: 0x9C }
  - { offsetInCU: 0x12036, offset: 0x1E32A, size: 0x8, addend: 0x0, symName: __ZNSt3__19__sift_upB8ue170006INS_17_ClassicAlgPolicyER10ComparatorNS_11__wrap_iterIPP7ZombiesEEEEvT1_S9_OT0_NS_15iterator_traitsIS9_E15difference_typeE, symObjAddr: 0x49A4C, symBinAddr: 0x10005AAD0, symSize: 0x984 }
  - { offsetInCU: 0x120EE, offset: 0x1E3E2, size: 0x8, addend: 0x0, symName: __ZNSt3__1gtB8ue170006IcNS_11char_traitsIcEENS_9allocatorIcEEEEbRKNS_12basic_stringIT_T0_T1_EESB_, symObjAddr: 0x4B69C, symBinAddr: 0x10005C720, symSize: 0xC0 }
  - { offsetInCU: 0x12146, offset: 0x1E43A, size: 0x8, addend: 0x0, symName: __ZNSt3__142__uninitialized_allocator_move_if_noexceptB8ue170006INS_9allocatorINS_12basic_stringIcNS_11char_traitsIcEENS1_IcEEEEEENS_16reverse_iteratorIPS6_EESA_SA_EET2_RT_T0_T1_SB_, symObjAddr: 0x5344C, symBinAddr: 0x10005FA40, symSize: 0x5D8 }
  - { offsetInCU: 0x121FB, offset: 0x1E4EF, size: 0x8, addend: 0x0, symName: __ZNSt3__14swapB8ue170006IPNS_12basic_stringIcNS_11char_traitsIcEENS_9allocatorIcEEEEEENS_9enable_ifIXaasr21is_move_constructibleIT_EE5valuesr18is_move_assignableIS9_EE5valueEvE4typeERS9_SC_, symObjAddr: 0x53B54, symBinAddr: 0x100060018, symSize: 0x1C0 }
  - { offsetInCU: 0x1224C, offset: 0x1E540, size: 0x8, addend: 0x0, symName: __ZNSt3__122__make_exception_guardB8ue170006INS_29_AllocatorDestroyRangeReverseINS_9allocatorINS_12basic_stringIcNS_11char_traitsIcEENS2_IcEEEEEENS_16reverse_iteratorIPS7_EEEEEENS_28__exception_guard_exceptionsIT_EESE_, symObjAddr: 0x5408C, symBinAddr: 0x1000601D8, symSize: 0x23C }
  - { offsetInCU: 0x12283, offset: 0x1E577, size: 0x8, addend: 0x0, symName: __ZNSt3__119__allocator_destroyB8ue170006INS_9allocatorINS_12basic_stringIcNS_11char_traitsIcEENS1_IcEEEEEENS_16reverse_iteratorINS8_IPS6_EEEESB_EEvRT_T0_T1_, symObjAddr: 0x5558C, symBinAddr: 0x100061088, symSize: 0x1A4 }
  - { offsetInCU: 0x122E8, offset: 0x1E5DC, size: 0x8, addend: 0x0, symName: __ZNSt3__1neB8ue170006INS_16reverse_iteratorIPNS_12basic_stringIcNS_11char_traitsIcEENS_9allocatorIcEEEEEES9_EEbRKNS1_IT_EERKNS1_IT0_EE, symObjAddr: 0x559CC, symBinAddr: 0x1000614C8, symSize: 0x324 }
  - { offsetInCU: 0x12336, offset: 0x1E62A, size: 0x8, addend: 0x0, symName: __ZNSt3__112__to_addressB8ue170006INS_16reverse_iteratorINS1_IPNS_12basic_stringIcNS_11char_traitsIcEENS_9allocatorIcEEEEEEEEvEEu7__decayIDTclsr19__to_address_helperIT_EE6__callclsr3stdE7declvalIRKSB_EEEEESD_, symObjAddr: 0x55CF0, symBinAddr: 0x1000617EC, symSize: 0x6C }
  - { offsetInCU: 0x1273A, offset: 0x1EA2E, size: 0x8, addend: 0x0, symName: __ZNSt3__14swapB8ue170006IPPNS_12basic_stringIcNS_11char_traitsIcEENS_9allocatorIcEEEEEENS_9enable_ifIXaasr21is_move_constructibleIT_EE5valuesr18is_move_assignableISA_EE5valueEvE4typeERSA_SD_, symObjAddr: 0x5EEF8, symBinAddr: 0x10006A8E8, symSize: 0x1C0 }
  - { offsetInCU: 0x1278B, offset: 0x1EA7F, size: 0x8, addend: 0x0, symName: __ZNSt3__113move_backwardB8ue170006IPPNS_12basic_stringIcNS_11char_traitsIcEENS_9allocatorIcEEEES8_EET0_T_SA_S9_, symObjAddr: 0x5F4D8, symBinAddr: 0x10006AEC8, symSize: 0x2B4 }
  - { offsetInCU: 0x127E8, offset: 0x1EADC, size: 0x8, addend: 0x0, symName: __ZNSt3__115__move_backwardB8ue170006INS_17_ClassicAlgPolicyEPPNS_12basic_stringIcNS_11char_traitsIcEENS_9allocatorIcEEEES9_S9_EENS_4pairIT0_T2_EESB_T1_SC_, symObjAddr: 0x5FCAC, symBinAddr: 0x10006B69C, symSize: 0x22C }
  - { offsetInCU: 0x12857, offset: 0x1EB4B, size: 0x8, addend: 0x0, symName: __ZNSt3__123__dispatch_copy_or_moveB8ue170006INS_17_ClassicAlgPolicyENS_20__move_backward_loopIS1_EENS_23__move_backward_trivialEPPNS_12basic_stringIcNS_11char_traitsIcEENS_9allocatorIcEEEESC_SC_EENS_4pairIT2_T4_EESE_T3_SF_, symObjAddr: 0x5FED8, symBinAddr: 0x10006B8C8, symSize: 0x22C }
  - { offsetInCU: 0x128D8, offset: 0x1EBCC, size: 0x8, addend: 0x0, symName: __ZNSt3__121__unwrap_and_dispatchB8ue170006INS_10__overloadINS_20__move_backward_loopINS_17_ClassicAlgPolicyEEENS_23__move_backward_trivialEEEPPNS_12basic_stringIcNS_11char_traitsIcEENS_9allocatorIcEEEESE_SE_Li0EEENS_4pairIT0_T2_EESG_T1_SH_, symObjAddr: 0x60104, symBinAddr: 0x10006BAF4, symSize: 0x634 }
  - { offsetInCU: 0x12971, offset: 0x1EC65, size: 0x8, addend: 0x0, symName: __ZNSt3__114__unwrap_rangeB8ue170006IPPNS_12basic_stringIcNS_11char_traitsIcEENS_9allocatorIcEEEES8_EENS_4pairIT0_SA_EET_SC_, symObjAddr: 0x60738, symBinAddr: 0x10006C128, symSize: 0x350 }
  - { offsetInCU: 0x12AF1, offset: 0x1EDE5, size: 0x8, addend: 0x0, symName: __ZNSt3__113__unwrap_iterB8ue170006IPPNS_12basic_stringIcNS_11char_traitsIcEENS_9allocatorIcEEEENS_18__unwrap_iter_implIS8_Lb1EEELi0EEEDTclsrT0_8__unwrapclsr3stdE7declvalIT_EEEESC_, symObjAddr: 0x60CE4, symBinAddr: 0x10006C6D4, symSize: 0x24 }
  - { offsetInCU: 0x12B35, offset: 0x1EE29, size: 0x8, addend: 0x0, symName: __ZNSt3__19make_pairB8ue170006IPPNS_12basic_stringIcNS_11char_traitsIcEENS_9allocatorIcEEEES8_EENS_4pairINS_18__unwrap_ref_decayIT_E4typeENSA_IT0_E4typeEEEOSB_OSE_, symObjAddr: 0x60D08, symBinAddr: 0x10006C6F8, symSize: 0x2A0 }
  - { offsetInCU: 0x12B86, offset: 0x1EE7A, size: 0x8, addend: 0x0, symName: __ZNSt3__114__rewrap_rangeB8ue170006IPPNS_12basic_stringIcNS_11char_traitsIcEENS_9allocatorIcEEEES8_EET_S9_T0_, symObjAddr: 0x60FA8, symBinAddr: 0x10006C998, symSize: 0x2C }
  - { offsetInCU: 0x12BD2, offset: 0x1EEC6, size: 0x8, addend: 0x0, symName: __ZNSt3__113__rewrap_iterB8ue170006IPPNS_12basic_stringIcNS_11char_traitsIcEENS_9allocatorIcEEEES8_NS_18__unwrap_iter_implIS8_Lb1EEEEET_SB_T0_, symObjAddr: 0x60FD4, symBinAddr: 0x10006C9C4, symSize: 0x48 }
  - { offsetInCU: 0x12C27, offset: 0x1EF1B, size: 0x8, addend: 0x0, symName: __ZNSt3__128__copy_backward_trivial_implB8ue170006IPNS_12basic_stringIcNS_11char_traitsIcEENS_9allocatorIcEEEES7_EENS_4pairIPT_PT0_EESA_SA_SC_, symObjAddr: 0x6101C, symBinAddr: 0x10006CA0C, symSize: 0x4E0 }
  - { offsetInCU: 0x12C99, offset: 0x1EF8D, size: 0x8, addend: 0x0, symName: __ZNSt3__119__constexpr_memmoveB8ue170006IPNS_12basic_stringIcNS_11char_traitsIcEENS_9allocatorIcEEEES7_Li0EEEPT_S9_PT0_NS_15__element_countE, symObjAddr: 0x614FC, symBinAddr: 0x10006CEEC, symSize: 0x64 }
  - { offsetInCU: 0x12D07, offset: 0x1EFFB, size: 0x8, addend: 0x0, symName: __ZNSt3__19make_pairB8ue170006IRPPNS_12basic_stringIcNS_11char_traitsIcEENS_9allocatorIcEEEES9_EENS_4pairINS_18__unwrap_ref_decayIT_E4typeENSB_IT0_E4typeEEEOSC_OSF_, symObjAddr: 0x61560, symBinAddr: 0x10006CF50, symSize: 0x2A0 }
  - { offsetInCU: 0x12DAB, offset: 0x1F09F, size: 0x8, addend: 0x0, symName: __ZNSt3__18distanceB8ue170006INS_13move_iteratorIPPNS_12basic_stringIcNS_11char_traitsIcEENS_9allocatorIcEEEEEEEENS_15iterator_traitsIT_E15difference_typeESC_SC_, symObjAddr: 0x624A0, symBinAddr: 0x10006DE90, symSize: 0x350 }
  - { offsetInCU: 0x12DF6, offset: 0x1F0EA, size: 0x8, addend: 0x0, symName: __ZNSt3__110__distanceB8ue170006INS_13move_iteratorIPPNS_12basic_stringIcNS_11char_traitsIcEENS_9allocatorIcEEEEEEEENS_15iterator_traitsIT_E15difference_typeESC_SC_NS_26random_access_iterator_tagE, symObjAddr: 0x634E4, symBinAddr: 0x10006EED4, symSize: 0x274 }
  - { offsetInCU: 0x12E4D, offset: 0x1F141, size: 0x8, addend: 0x0, symName: __ZNSt3__1miB8ue170006IPPNS_12basic_stringIcNS_11char_traitsIcEENS_9allocatorIcEEEES8_EEDTmicldtfp_4baseEcldtfp0_4baseEERKNS_13move_iteratorIT_EERKNSA_IT0_EE, symObjAddr: 0x63758, symBinAddr: 0x10006F148, symSize: 0x9C }
  - { offsetInCU: 0x12E9C, offset: 0x1F190, size: 0x8, addend: 0x0, symName: __ZNSt3__14moveB8ue170006IPPNS_12basic_stringIcNS_11char_traitsIcEENS_9allocatorIcEEEES8_EET0_T_SA_S9_, symObjAddr: 0x63AD0, symBinAddr: 0x10006F4C0, symSize: 0x2B4 }
  - { offsetInCU: 0x12EF9, offset: 0x1F1ED, size: 0x8, addend: 0x0, symName: __ZNSt3__16__moveB8ue170006INS_17_ClassicAlgPolicyEPPNS_12basic_stringIcNS_11char_traitsIcEENS_9allocatorIcEEEES9_S9_EENS_4pairIT0_T2_EESB_T1_SC_, symObjAddr: 0x63D84, symBinAddr: 0x10006F774, symSize: 0x22C }
  - { offsetInCU: 0x12F68, offset: 0x1F25C, size: 0x8, addend: 0x0, symName: __ZNSt3__123__dispatch_copy_or_moveB8ue170006INS_17_ClassicAlgPolicyENS_11__move_loopIS1_EENS_14__move_trivialEPPNS_12basic_stringIcNS_11char_traitsIcEENS_9allocatorIcEEEESC_SC_EENS_4pairIT2_T4_EESE_T3_SF_, symObjAddr: 0x63FB0, symBinAddr: 0x10006F9A0, symSize: 0x22C }
  - { offsetInCU: 0x12FE9, offset: 0x1F2DD, size: 0x8, addend: 0x0, symName: __ZNSt3__121__unwrap_and_dispatchB8ue170006INS_10__overloadINS_11__move_loopINS_17_ClassicAlgPolicyEEENS_14__move_trivialEEEPPNS_12basic_stringIcNS_11char_traitsIcEENS_9allocatorIcEEEESE_SE_Li0EEENS_4pairIT0_T2_EESG_T1_SH_, symObjAddr: 0x641DC, symBinAddr: 0x10006FBCC, symSize: 0x634 }
  - { offsetInCU: 0x13082, offset: 0x1F376, size: 0x8, addend: 0x0, symName: __ZNSt3__119__copy_trivial_implB8ue170006IPNS_12basic_stringIcNS_11char_traitsIcEENS_9allocatorIcEEEES7_EENS_4pairIPT_PT0_EESA_SA_SC_, symObjAddr: 0x64A6C, symBinAddr: 0x10007045C, symSize: 0x480 }
  - { offsetInCU: 0x130F1, offset: 0x1F3E5, size: 0x8, addend: 0x0, symName: __ZNSt3__19make_pairB8ue170006IRPPNS_12basic_stringIcNS_11char_traitsIcEENS_9allocatorIcEEEES8_EENS_4pairINS_18__unwrap_ref_decayIT_E4typeENSB_IT0_E4typeEEEOSC_OSF_, symObjAddr: 0x64EEC, symBinAddr: 0x1000708DC, symSize: 0x2A0 }
  - { offsetInCU: 0x13142, offset: 0x1F436, size: 0x8, addend: 0x0, symName: __ZNSt3__119__allocate_at_leastB8ue170006INS_9allocatorIPNS_12basic_stringIcNS_11char_traitsIcEENS1_IcEEEEEEEENS_19__allocation_resultINS_16allocator_traitsIT_E7pointerEEERSB_m, symObjAddr: 0x65C84, symBinAddr: 0x100071674, symSize: 0x28C }
  - { offsetInCU: 0x13187, offset: 0x1F47B, size: 0x8, addend: 0x0, symName: __ZNSt3__19push_heapB8ue170006INS_11__wrap_iterIPjEENS_7greaterIjEEEEvT_S6_T0_, symObjAddr: 0x68698, symBinAddr: 0x100074088, symSize: 0x36C }
  - { offsetInCU: 0x131EA, offset: 0x1F4DE, size: 0x8, addend: 0x0, symName: __ZNSt3__119__allocate_at_leastB8ue170006INS_9allocatorIjEEEENS_19__allocation_resultINS_16allocator_traitsIT_E7pointerEEERS5_m, symObjAddr: 0x6CCB8, symBinAddr: 0x1000786A8, symSize: 0x28C }
  - { offsetInCU: 0x1322F, offset: 0x1F523, size: 0x8, addend: 0x0, symName: __ZNSt3__142__uninitialized_allocator_move_if_noexceptB8ue170006INS_9allocatorIjEENS_16reverse_iteratorIPjEES5_jvEET1_RT_T0_S9_S6_, symObjAddr: 0x6D784, symBinAddr: 0x100079174, symSize: 0x4A8 }
  - { offsetInCU: 0x132BA, offset: 0x1F5AE, size: 0x8, addend: 0x0, symName: __ZNSt3__14swapB8ue170006IPjEENS_9enable_ifIXaasr21is_move_constructibleIT_EE5valuesr18is_move_assignableIS3_EE5valueEvE4typeERS3_S6_, symObjAddr: 0x6DD5C, symBinAddr: 0x10007974C, symSize: 0x1C0 }
  - { offsetInCU: 0x1330B, offset: 0x1F5FF, size: 0x8, addend: 0x0, symName: __ZNSt3__14moveB8ue170006INS_16reverse_iteratorIPjEES3_EET0_T_S5_S4_, symObjAddr: 0x6E27C, symBinAddr: 0x100079C6C, symSize: 0x4B0 }
  - { offsetInCU: 0x13372, offset: 0x1F666, size: 0x8, addend: 0x0, symName: __ZNSt3__16__moveB8ue170006INS_17_ClassicAlgPolicyENS_16reverse_iteratorIPjEES4_S4_EENS_4pairIT0_T2_EES6_T1_S7_, symObjAddr: 0x6E72C, symBinAddr: 0x10007A11C, symSize: 0x424 }
  - { offsetInCU: 0x133EA, offset: 0x1F6DE, size: 0x8, addend: 0x0, symName: __ZNSt3__123__dispatch_copy_or_moveB8ue170006INS_17_ClassicAlgPolicyENS_11__move_loopIS1_EENS_14__move_trivialENS_16reverse_iteratorIPjEES7_S7_EENS_4pairIT2_T4_EES9_T3_SA_, symObjAddr: 0x6EB50, symBinAddr: 0x10007A540, symSize: 0x424 }
  - { offsetInCU: 0x13474, offset: 0x1F768, size: 0x8, addend: 0x0, symName: __ZNSt3__121__unwrap_and_dispatchB8ue170006INS_10__overloadINS_11__move_loopINS_17_ClassicAlgPolicyEEENS_14__move_trivialEEENS_16reverse_iteratorIPjEES9_S9_Li0EEENS_4pairIT0_T2_EESB_T1_SC_, symObjAddr: 0x6EF74, symBinAddr: 0x10007A964, symSize: 0x880 }
  - { offsetInCU: 0x13518, offset: 0x1F80C, size: 0x8, addend: 0x0, symName: __ZNSt3__114__unwrap_rangeB8ue170006INS_16reverse_iteratorIPjEES3_EENS_4pairIT0_S5_EET_S7_, symObjAddr: 0x6F7F4, symBinAddr: 0x10007B1E4, symSize: 0x448 }
  - { offsetInCU: 0x13640, offset: 0x1F934, size: 0x8, addend: 0x0, symName: __ZNSt3__113__unwrap_iterB8ue170006INS_16reverse_iteratorIPjEENS_18__unwrap_iter_implIS3_Lb0EEELi0EEEDTclsrT0_8__unwrapclsr3stdE7declvalIT_EEEES7_, symObjAddr: 0x700E8, symBinAddr: 0x10007BAD8, symSize: 0x2EC }
  - { offsetInCU: 0x13688, offset: 0x1F97C, size: 0x8, addend: 0x0, symName: __ZNSt3__19make_pairB8ue170006INS_16reverse_iteratorIPjEES3_EENS_4pairINS_18__unwrap_ref_decayIT_E4typeENS5_IT0_E4typeEEEOS6_OS9_, symObjAddr: 0x703D4, symBinAddr: 0x10007BDC4, symSize: 0x108 }
  - { offsetInCU: 0x136D7, offset: 0x1F9CB, size: 0x8, addend: 0x0, symName: __ZNSt3__114__rewrap_rangeB8ue170006INS_16reverse_iteratorIPjEES3_EET_S4_T0_, symObjAddr: 0x704DC, symBinAddr: 0x10007BECC, symSize: 0x3D4 }
  - { offsetInCU: 0x1372B, offset: 0x1FA1F, size: 0x8, addend: 0x0, symName: __ZNSt3__113__rewrap_iterB8ue170006INS_16reverse_iteratorIPjEES3_NS_18__unwrap_iter_implIS3_Lb0EEEEET_S6_T0_, symObjAddr: 0x708B0, symBinAddr: 0x10007C2A0, symSize: 0x3E8 }
  - { offsetInCU: 0x13788, offset: 0x1FA7C, size: 0x8, addend: 0x0, symName: __ZNSt3__1neB8ue170006IPjS1_EEbRKNS_16reverse_iteratorIT_EERKNS2_IT0_EE, symObjAddr: 0x70C98, symBinAddr: 0x10007C688, symSize: 0x9C }
  - { offsetInCU: 0x13840, offset: 0x1FB34, size: 0x8, addend: 0x0, symName: __ZNSt3__111__push_heapB8ue170006INS_17_ClassicAlgPolicyENS_11__wrap_iterIPjEENS_7greaterIjEEEEvT0_S7_RT1_, symObjAddr: 0x720CC, symBinAddr: 0x10007DABC, symSize: 0x3A0 }
  - { offsetInCU: 0x138B8, offset: 0x1FBAC, size: 0x8, addend: 0x0, symName: __ZNSt3__1miB8ue170006IPjS1_EEDTmicldtfp_4baseEcldtfp0_4baseEERKNS_11__wrap_iterIT_EERKNS3_IT0_EE, symObjAddr: 0x7246C, symBinAddr: 0x10007DE5C, symSize: 0x9C }
  - { offsetInCU: 0x13904, offset: 0x1FBF8, size: 0x8, addend: 0x0, symName: __ZNSt3__19__sift_upB8ue170006INS_17_ClassicAlgPolicyERNS_7greaterIjEENS_11__wrap_iterIPjEEEEvT1_S8_OT0_NS_15iterator_traitsIS8_E15difference_typeE, symObjAddr: 0x72508, symBinAddr: 0x10007DEF8, symSize: 0xA80 }
  - { offsetInCU: 0x139B8, offset: 0x1FCAC, size: 0x8, addend: 0x0, symName: __ZNSt3__19push_heapB8ue170006INS_11__wrap_iterIPjEENS_4lessIjEEEEvT_S6_T0_, symObjAddr: 0x73CD4, symBinAddr: 0x10007F6C4, symSize: 0x36C }
  - { offsetInCU: 0x13A1B, offset: 0x1FD0F, size: 0x8, addend: 0x0, symName: __ZNSt3__111__push_heapB8ue170006INS_17_ClassicAlgPolicyENS_11__wrap_iterIPjEENS_4lessIjEEEEvT0_S7_RT1_, symObjAddr: 0x74040, symBinAddr: 0x10007FA30, symSize: 0x3A0 }
  - { offsetInCU: 0x13A93, offset: 0x1FD87, size: 0x8, addend: 0x0, symName: __ZNSt3__19__sift_upB8ue170006INS_17_ClassicAlgPolicyERNS_4lessIjEENS_11__wrap_iterIPjEEEEvT1_S8_OT0_NS_15iterator_traitsIS8_E15difference_typeE, symObjAddr: 0x743E0, symBinAddr: 0x10007FDD0, symSize: 0xA80 }
  - { offsetInCU: 0x13B47, offset: 0x1FE3B, size: 0x8, addend: 0x0, symName: __ZNSt3__18pop_heapB8ue170006INS_11__wrap_iterIPjEENS_4lessIjEEEEvT_S6_T0_, symObjAddr: 0x75090, symBinAddr: 0x100080A80, symSize: 0x388 }
  - { offsetInCU: 0x13BB9, offset: 0x1FEAD, size: 0x8, addend: 0x0, symName: __ZNSt3__110__pop_heapB8ue170006INS_17_ClassicAlgPolicyENS_4lessIjEENS_11__wrap_iterIPjEEEEvT1_S7_RT0_NS_15iterator_traitsIS7_E15difference_typeE, symObjAddr: 0x75568, symBinAddr: 0x100080F58, symSize: 0x8B0 }
  - { offsetInCU: 0x13C72, offset: 0x1FF66, size: 0x8, addend: 0x0, symName: __ZNSt3__1eqB8ue170006IPjEEbRKNS_11__wrap_iterIT_EES6_, symObjAddr: 0x76614, symBinAddr: 0x100082004, symSize: 0x9C }
  - { offsetInCU: 0x13CB5, offset: 0x1FFA9, size: 0x8, addend: 0x0, symName: __ZNSt3__18pop_heapB8ue170006INS_11__wrap_iterIPjEENS_7greaterIjEEEEvT_S6_T0_, symObjAddr: 0x768E8, symBinAddr: 0x1000822D8, symSize: 0x388 }
  - { offsetInCU: 0x13D27, offset: 0x2001B, size: 0x8, addend: 0x0, symName: __ZNSt3__110__pop_heapB8ue170006INS_17_ClassicAlgPolicyENS_7greaterIjEENS_11__wrap_iterIPjEEEEvT1_S7_RT0_NS_15iterator_traitsIS7_E15difference_typeE, symObjAddr: 0x76C70, symBinAddr: 0x100082660, symSize: 0x8B0 }
  - { offsetInCU: 0x13DE0, offset: 0x200D4, size: 0x8, addend: 0x0, symName: __ZNSt3__18pop_heapB8ue170006INS_11__wrap_iterIPP7ZombiesEE10ComparatorEEvT_S7_T0_, symObjAddr: 0x77D1C, symBinAddr: 0x10008370C, symSize: 0x388 }
  - { offsetInCU: 0x13E52, offset: 0x20146, size: 0x8, addend: 0x0, symName: __ZNSt3__110__pop_heapB8ue170006INS_17_ClassicAlgPolicyE10ComparatorNS_11__wrap_iterIPP7ZombiesEEEEvT1_S8_RT0_NS_15iterator_traitsIS8_E15difference_typeE, symObjAddr: 0x781F4, symBinAddr: 0x100083BE4, symSize: 0x7E8 }
  - { offsetInCU: 0x13F0B, offset: 0x201FF, size: 0x8, addend: 0x0, symName: __ZNSt3__1eqB8ue170006IPP7ZombiesEEbRKNS_11__wrap_iterIT_EES8_, symObjAddr: 0x791F8, symBinAddr: 0x100084BE8, symSize: 0x9C }
  - { offsetInCU: 0x13F4E, offset: 0x20242, size: 0x8, addend: 0x0, symName: __ZNSt3__19push_heapB8ue170006INS_11__wrap_iterIP7ZombiesEE11LeastActiveEEvT_S6_T0_, symObjAddr: 0x796C8, symBinAddr: 0x1000850B8, symSize: 0x36C }
  - { offsetInCU: 0x13FB1, offset: 0x202A5, size: 0x8, addend: 0x0, symName: __ZNSt3__119__allocate_at_leastB8ue170006INS_9allocatorI7ZombiesEEEENS_19__allocation_resultINS_16allocator_traitsIT_E7pointerEEERS6_m, symObjAddr: 0x7D9D8, symBinAddr: 0x1000893C8, symSize: 0x28C }
  - { offsetInCU: 0x13FF6, offset: 0x202EA, size: 0x8, addend: 0x0, symName: __ZNSt3__142__uninitialized_allocator_move_if_noexceptB8ue170006INS_9allocatorI7ZombiesEENS_16reverse_iteratorIPS2_EES6_S6_EET2_RT_T0_T1_S7_, symObjAddr: 0x7E3D8, symBinAddr: 0x100089DC8, symSize: 0x5D8 }
  - { offsetInCU: 0x140AB, offset: 0x2039F, size: 0x8, addend: 0x0, symName: __ZNSt3__14swapB8ue170006IP7ZombiesEENS_9enable_ifIXaasr21is_move_constructibleIT_EE5valuesr18is_move_assignableIS4_EE5valueEvE4typeERS4_S7_, symObjAddr: 0x7EAE0, symBinAddr: 0x10008A4D0, symSize: 0x1C0 }
  - { offsetInCU: 0x140FC, offset: 0x203F0, size: 0x8, addend: 0x0, symName: __ZNSt3__122__make_exception_guardB8ue170006INS_29_AllocatorDestroyRangeReverseINS_9allocatorI7ZombiesEENS_16reverse_iteratorIPS3_EEEEEENS_28__exception_guard_exceptionsIT_EESA_, symObjAddr: 0x7F018, symBinAddr: 0x10008AA08, symSize: 0x23C }
  - { offsetInCU: 0x14133, offset: 0x20427, size: 0x8, addend: 0x0, symName: __ZNSt3__1neB8ue170006IP7ZombiesS2_EEbRKNS_16reverse_iteratorIT_EERKNS3_IT0_EE, symObjAddr: 0x7F2E4, symBinAddr: 0x10008ACD4, symSize: 0x9C }
  - { offsetInCU: 0x1417F, offset: 0x20473, size: 0x8, addend: 0x0, symName: __ZNSt3__112__to_addressB8ue170006INS_16reverse_iteratorIP7ZombiesEEvEEu7__decayIDTclsr19__to_address_helperIT_EE6__callclsr3stdE7declvalIRKS5_EEEEES7_, symObjAddr: 0x7F40C, symBinAddr: 0x10008ADFC, symSize: 0x6C }
  - { offsetInCU: 0x141DE, offset: 0x204D2, size: 0x8, addend: 0x0, symName: __ZNSt3__119__allocator_destroyB8ue170006INS_9allocatorI7ZombiesEENS_16reverse_iteratorINS4_IPS2_EEEES7_EEvRT_T0_T1_, symObjAddr: 0x80584, symBinAddr: 0x10008BF74, symSize: 0x1A4 }
  - { offsetInCU: 0x14243, offset: 0x20537, size: 0x8, addend: 0x0, symName: __ZNSt3__1neB8ue170006INS_16reverse_iteratorIP7ZombiesEES4_EEbRKNS1_IT_EERKNS1_IT0_EE, symObjAddr: 0x809C4, symBinAddr: 0x10008C3B4, symSize: 0x324 }
  - { offsetInCU: 0x14291, offset: 0x20585, size: 0x8, addend: 0x0, symName: __ZNSt3__112__to_addressB8ue170006INS_16reverse_iteratorINS1_IP7ZombiesEEEEvEEu7__decayIDTclsr19__to_address_helperIT_EE6__callclsr3stdE7declvalIRKS6_EEEEES8_, symObjAddr: 0x80CE8, symBinAddr: 0x10008C6D8, symSize: 0x6C }
  - { offsetInCU: 0x142F0, offset: 0x205E4, size: 0x8, addend: 0x0, symName: __ZNSt3__111__push_heapB8ue170006INS_17_ClassicAlgPolicyENS_11__wrap_iterIP7ZombiesEE11LeastActiveEEvT0_S7_RT1_, symObjAddr: 0x821AC, symBinAddr: 0x10008DB9C, symSize: 0x3A0 }
  - { offsetInCU: 0x14368, offset: 0x2065C, size: 0x8, addend: 0x0, symName: __ZNSt3__1miB8ue170006IP7ZombiesS2_EEDTmicldtfp_4baseEcldtfp0_4baseEERKNS_11__wrap_iterIT_EERKNS4_IT0_EE, symObjAddr: 0x8254C, symBinAddr: 0x10008DF3C, symSize: 0x9C }
  - { offsetInCU: 0x143B4, offset: 0x206A8, size: 0x8, addend: 0x0, symName: __ZNSt3__19__sift_upB8ue170006INS_17_ClassicAlgPolicyER11LeastActiveNS_11__wrap_iterIP7ZombiesEEEEvT1_S8_OT0_NS_15iterator_traitsIS8_E15difference_typeE, symObjAddr: 0x825E8, symBinAddr: 0x10008DFD8, symSize: 0x97C }
  - { offsetInCU: 0x1448C, offset: 0x20780, size: 0x8, addend: 0x0, symName: __ZNSt3__18pop_heapB8ue170006INS_11__wrap_iterIP7ZombiesEE11LeastActiveEEvT_S6_T0_, symObjAddr: 0x84C8C, symBinAddr: 0x10009067C, symSize: 0x388 }
  - { offsetInCU: 0x144FE, offset: 0x207F2, size: 0x8, addend: 0x0, symName: __ZNSt3__110__pop_heapB8ue170006INS_17_ClassicAlgPolicyE11LeastActiveNS_11__wrap_iterIP7ZombiesEEEEvT1_S7_RT0_NS_15iterator_traitsIS7_E15difference_typeE, symObjAddr: 0x85164, symBinAddr: 0x100090B54, symSize: 0x81C }
  - { offsetInCU: 0x145BB, offset: 0x208AF, size: 0x8, addend: 0x0, symName: __ZNSt3__1eqB8ue170006IP7ZombiesEEbRKNS_11__wrap_iterIT_EES7_, symObjAddr: 0x860C0, symBinAddr: 0x100091AB0, symSize: 0x9C }
  - { offsetInCU: 0x145FE, offset: 0x208F2, size: 0x8, addend: 0x0, symName: __ZNSt3__19push_heapB8ue170006INS_11__wrap_iterIP7ZombiesEE11MostActive2EEvT_S6_T0_, symObjAddr: 0x86500, symBinAddr: 0x100091EF0, symSize: 0x36C }
  - { offsetInCU: 0x14661, offset: 0x20955, size: 0x8, addend: 0x0, symName: __ZNSt3__111__push_heapB8ue170006INS_17_ClassicAlgPolicyENS_11__wrap_iterIP7ZombiesEE11MostActive2EEvT0_S7_RT1_, symObjAddr: 0x8686C, symBinAddr: 0x10009225C, symSize: 0x3A0 }
  - { offsetInCU: 0x146D9, offset: 0x209CD, size: 0x8, addend: 0x0, symName: __ZNSt3__19__sift_upB8ue170006INS_17_ClassicAlgPolicyER11MostActive2NS_11__wrap_iterIP7ZombiesEEEEvT1_S8_OT0_NS_15iterator_traitsIS8_E15difference_typeE, symObjAddr: 0x86C0C, symBinAddr: 0x1000925FC, symSize: 0x97C }
  - { offsetInCU: 0x1478D, offset: 0x20A81, size: 0x8, addend: 0x0, symName: __ZNSt3__18pop_heapB8ue170006INS_11__wrap_iterIP7ZombiesEE11MostActive2EEvT_S6_T0_, symObjAddr: 0x8793C, symBinAddr: 0x10009332C, symSize: 0x388 }
  - { offsetInCU: 0x147FF, offset: 0x20AF3, size: 0x8, addend: 0x0, symName: __ZNSt3__110__pop_heapB8ue170006INS_17_ClassicAlgPolicyE11MostActive2NS_11__wrap_iterIP7ZombiesEEEEvT1_S7_RT0_NS_15iterator_traitsIS7_E15difference_typeE, symObjAddr: 0x87CC4, symBinAddr: 0x1000936B4, symSize: 0x81C }
  - { offsetInCU: 0x148BC, offset: 0x20BB0, size: 0x8, addend: 0x0, symName: __ZNSt3__19push_heapB8ue170006INS_11__wrap_iterIP7ZombiesEE10MostActiveEEvT_S6_T0_, symObjAddr: 0x88C20, symBinAddr: 0x100094610, symSize: 0x36C }
  - { offsetInCU: 0x1491F, offset: 0x20C13, size: 0x8, addend: 0x0, symName: __ZNSt3__111__push_heapB8ue170006INS_17_ClassicAlgPolicyENS_11__wrap_iterIP7ZombiesEE10MostActiveEEvT0_S7_RT1_, symObjAddr: 0x88F8C, symBinAddr: 0x10009497C, symSize: 0x3A0 }
  - { offsetInCU: 0x14997, offset: 0x20C8B, size: 0x8, addend: 0x0, symName: __ZNSt3__19__sift_upB8ue170006INS_17_ClassicAlgPolicyER10MostActiveNS_11__wrap_iterIP7ZombiesEEEEvT1_S8_OT0_NS_15iterator_traitsIS8_E15difference_typeE, symObjAddr: 0x8932C, symBinAddr: 0x100094D1C, symSize: 0x97C }
  - { offsetInCU: 0x14A4B, offset: 0x20D3F, size: 0x8, addend: 0x0, symName: __ZNSt3__18pop_heapB8ue170006INS_11__wrap_iterIP7ZombiesEE10MostActiveEEvT_S6_T0_, symObjAddr: 0x8A05C, symBinAddr: 0x100095A4C, symSize: 0x388 }
  - { offsetInCU: 0x14ABD, offset: 0x20DB1, size: 0x8, addend: 0x0, symName: __ZNSt3__110__pop_heapB8ue170006INS_17_ClassicAlgPolicyE10MostActiveNS_11__wrap_iterIP7ZombiesEEEEvT1_S7_RT0_NS_15iterator_traitsIS7_E15difference_typeE, symObjAddr: 0x8A3E4, symBinAddr: 0x100095DD4, symSize: 0x81C }
  - { offsetInCU: 0x14B7A, offset: 0x20E6E, size: 0x8, addend: 0x0, symName: __ZNSt3__19push_heapB8ue170006INS_11__wrap_iterIP7ZombiesEE12LeastActive2EEvT_S6_T0_, symObjAddr: 0x8B3B8, symBinAddr: 0x100096DA8, symSize: 0x36C }
  - { offsetInCU: 0x14BDD, offset: 0x20ED1, size: 0x8, addend: 0x0, symName: __ZNSt3__111__push_heapB8ue170006INS_17_ClassicAlgPolicyENS_11__wrap_iterIP7ZombiesEE12LeastActive2EEvT0_S7_RT1_, symObjAddr: 0x8B724, symBinAddr: 0x100097114, symSize: 0x3A0 }
  - { offsetInCU: 0x14C55, offset: 0x20F49, size: 0x8, addend: 0x0, symName: __ZNSt3__19__sift_upB8ue170006INS_17_ClassicAlgPolicyER12LeastActive2NS_11__wrap_iterIP7ZombiesEEEEvT1_S8_OT0_NS_15iterator_traitsIS8_E15difference_typeE, symObjAddr: 0x8BAC4, symBinAddr: 0x1000974B4, symSize: 0x97C }
  - { offsetInCU: 0x14D09, offset: 0x20FFD, size: 0x8, addend: 0x0, symName: __ZNSt3__18pop_heapB8ue170006INS_11__wrap_iterIP7ZombiesEE12LeastActive2EEvT_S6_T0_, symObjAddr: 0x8C7F4, symBinAddr: 0x1000981E4, symSize: 0x388 }
  - { offsetInCU: 0x14D7B, offset: 0x2106F, size: 0x8, addend: 0x0, symName: __ZNSt3__110__pop_heapB8ue170006INS_17_ClassicAlgPolicyE12LeastActive2NS_11__wrap_iterIP7ZombiesEEEEvT1_S7_RT0_NS_15iterator_traitsIS7_E15difference_typeE, symObjAddr: 0x8CB7C, symBinAddr: 0x10009856C, symSize: 0x81C }
  - { offsetInCU: 0x15B8A, offset: 0x21E7E, size: 0x8, addend: 0x0, symName: __ZNSt3__16vectorIP7ZombiesNS_9allocatorIS2_EEE26__swap_out_circular_bufferERNS_14__split_bufferIS2_RS4_EE, symObjAddr: 0x445A8, symBinAddr: 0x100055888, symSize: 0x85C }
  - { offsetInCU: 0x15C6F, offset: 0x21F63, size: 0x8, addend: 0x0, symName: __ZNSt3__16vectorINS_12basic_stringIcNS_11char_traitsIcEENS_9allocatorIcEEEENS4_IS6_EEE26__swap_out_circular_bufferERNS_14__split_bufferIS6_RS7_EE, symObjAddr: 0x5112C, symBinAddr: 0x10005E188, symSize: 0x85C }
  - { offsetInCU: 0x15D99, offset: 0x2208D, size: 0x8, addend: 0x0, symName: __ZNSt3__16vectorIjNS_9allocatorIjEEE26__swap_out_circular_bufferERNS_14__split_bufferIjRS2_EE, symObjAddr: 0x6B47C, symBinAddr: 0x100076E6C, symSize: 0x85C }
  - { offsetInCU: 0x15DF1, offset: 0x220E5, size: 0x8, addend: 0x0, symName: __ZNSt3__16vectorI7ZombiesNS_9allocatorIS1_EEE26__swap_out_circular_bufferERNS_14__split_bufferIS1_RS3_EE, symObjAddr: 0x7C1FC, symBinAddr: 0x100087BEC, symSize: 0x85C }
  - { offsetInCU: 0x180AF, offset: 0x243A3, size: 0x8, addend: 0x0, symName: __ZN10ZombHolder11get_optionsEiPPc, symObjAddr: 0x0, symBinAddr: 0x1000166E8, symSize: 0x610 }
  - { offsetInCU: 0x18127, offset: 0x2441B, size: 0x8, addend: 0x0, symName: __ZN10ZombHolder10readHeaderEv, symObjAddr: 0x64C, symBinAddr: 0x100016D34, symSize: 0xEA8 }
  - { offsetInCU: 0x181AA, offset: 0x2449E, size: 0x8, addend: 0x0, symName: __ZNSt3__112basic_stringIcNS_11char_traitsIcEENS_9allocatorIcEEEC1B8ue170006Ev, symObjAddr: 0x14F4, symBinAddr: 0x100017BDC, symSize: 0x78 }
  - { offsetInCU: 0x181D3, offset: 0x244C7, size: 0x8, addend: 0x0, symName: __ZN10ZombHolder9readRoundEv, symObjAddr: 0x3154, symBinAddr: 0x10001983C, symSize: 0x23A0 }
  - { offsetInCU: 0x182D5, offset: 0x245C9, size: 0x8, addend: 0x0, symName: __ZN7ZombiesC1Ev, symObjAddr: 0x54F4, symBinAddr: 0x10001BBDC, symSize: 0x78 }
  - { offsetInCU: 0x182FE, offset: 0x245F2, size: 0x8, addend: 0x0, symName: __ZNSt3__15dequeI7ZombiesNS_9allocatorIS1_EEE9push_backERKS1_, symObjAddr: 0x556C, symBinAddr: 0x10001BC54, symSize: 0x3A8 }
  - { offsetInCU: 0x18346, offset: 0x2463A, size: 0x8, addend: 0x0, symName: __ZNSt3__15dequeI7ZombiesNS_9allocatorIS1_EEE4backEv, symObjAddr: 0x5914, symBinAddr: 0x10001BFFC, symSize: 0x408 }
  - { offsetInCU: 0x1837C, offset: 0x24670, size: 0x8, addend: 0x0, symName: __ZNSt3__114priority_queueIP7ZombiesNS_6vectorIS2_NS_9allocatorIS2_EEEE10ComparatorE4pushERKS2_, symObjAddr: 0x5D1C, symBinAddr: 0x10001C404, symSize: 0x468 }
  - { offsetInCU: 0x183B4, offset: 0x246A8, size: 0x8, addend: 0x0, symName: __ZNKSt3__19basic_iosIcNS_11char_traitsIcEEE4failB8ue170006Ev, symObjAddr: 0x6380, symBinAddr: 0x10001C998, symSize: 0x124 }
  - { offsetInCU: 0x183D9, offset: 0x246CD, size: 0x8, addend: 0x0, symName: __ZN7ZombiesD1Ev, symObjAddr: 0x64A4, symBinAddr: 0x10001CABC, symSize: 0x78 }
  - { offsetInCU: 0x18404, offset: 0x246F8, size: 0x8, addend: 0x0, symName: __ZN10ZombHolder9playRoundEv, symObjAddr: 0x651C, symBinAddr: 0x10001CB34, symSize: 0x4B18 }
  - { offsetInCU: 0x18487, offset: 0x2477B, size: 0x8, addend: 0x0, symName: __ZNKSt3__15dequeI7ZombiesNS_9allocatorIS1_EEE4sizeB8ue170006Ev, symObjAddr: 0xB2E0, symBinAddr: 0x1000218F8, symSize: 0xF8 }
  - { offsetInCU: 0x184AC, offset: 0x247A0, size: 0x8, addend: 0x0, symName: __ZNSt3__15dequeI7ZombiesNS_9allocatorIS1_EEEixEm, symObjAddr: 0xB3D8, symBinAddr: 0x1000219F0, symSize: 0x3FC }
  - { offsetInCU: 0x184F1, offset: 0x247E5, size: 0x8, addend: 0x0, symName: __ZN7ZombiesaSERKS_, symObjAddr: 0xB8D8, symBinAddr: 0x100021EF0, symSize: 0x160 }
  - { offsetInCU: 0x18520, offset: 0x24814, size: 0x8, addend: 0x0, symName: __ZNKSt3__114priority_queueIP7ZombiesNS_6vectorIS2_NS_9allocatorIS2_EEEE10ComparatorE5emptyB8ue170006Ev, symObjAddr: 0xBA38, symBinAddr: 0x100022050, symSize: 0xB4 }
  - { offsetInCU: 0x18545, offset: 0x24839, size: 0x8, addend: 0x0, symName: __ZNKSt3__114priority_queueIP7ZombiesNS_6vectorIS2_NS_9allocatorIS2_EEEE10ComparatorE3topB8ue170006Ev, symObjAddr: 0xBAEC, symBinAddr: 0x100022104, symSize: 0xF8 }
  - { offsetInCU: 0x1856A, offset: 0x2485E, size: 0x8, addend: 0x0, symName: __ZNKSt3__114priority_queueIP7ZombiesNS_6vectorIS2_NS_9allocatorIS2_EEEE10ComparatorE4sizeB8ue170006Ev, symObjAddr: 0xBBE4, symBinAddr: 0x1000221FC, symSize: 0xB0 }
  - { offsetInCU: 0x1858F, offset: 0x24883, size: 0x8, addend: 0x0, symName: __ZNSt3__16vectorINS_12basic_stringIcNS_11char_traitsIcEENS_9allocatorIcEEEENS4_IS6_EEE9push_backB8ue170006ERKS6_, symObjAddr: 0xBD8C, symBinAddr: 0x1000222AC, symSize: 0x1FC }
  - { offsetInCU: 0x185C5, offset: 0x248B9, size: 0x8, addend: 0x0, symName: __ZNSt3__15dequeINS_12basic_stringIcNS_11char_traitsIcEENS_9allocatorIcEEEENS4_IS6_EEE10push_frontERKS6_, symObjAddr: 0xBF88, symBinAddr: 0x1000224A8, symSize: 0x434 }
  - { offsetInCU: 0x1860D, offset: 0x24901, size: 0x8, addend: 0x0, symName: __ZNKSt3__15dequeINS_12basic_stringIcNS_11char_traitsIcEENS_9allocatorIcEEEENS4_IS6_EEE4sizeB8ue170006Ev, symObjAddr: 0xC3BC, symBinAddr: 0x1000228DC, symSize: 0xF8 }
  - { offsetInCU: 0x18632, offset: 0x24926, size: 0x8, addend: 0x0, symName: __ZNSt3__15dequeINS_12basic_stringIcNS_11char_traitsIcEENS_9allocatorIcEEEENS4_IS6_EEE8pop_backEv, symObjAddr: 0xC4B4, symBinAddr: 0x1000229D4, symSize: 0x4F4 }
  - { offsetInCU: 0x18695, offset: 0x24989, size: 0x8, addend: 0x0, symName: __ZNSt3__114priority_queueIjNS_6vectorIjNS_9allocatorIjEEEENS_7greaterIjEEE4pushERKj, symObjAddr: 0xC9A8, symBinAddr: 0x100022EC8, symSize: 0x468 }
  - { offsetInCU: 0x186CD, offset: 0x249C1, size: 0x8, addend: 0x0, symName: __ZNSt3__114priority_queueIjNS_6vectorIjNS_9allocatorIjEEEENS_4lessIjEEE4pushERKj, symObjAddr: 0xCE10, symBinAddr: 0x100023330, symSize: 0x468 }
  - { offsetInCU: 0x18705, offset: 0x249F9, size: 0x8, addend: 0x0, symName: __ZNKSt3__114priority_queueIjNS_6vectorIjNS_9allocatorIjEEEENS_4lessIjEEE4sizeB8ue170006Ev, symObjAddr: 0xD278, symBinAddr: 0x100023798, symSize: 0xB0 }
  - { offsetInCU: 0x1872A, offset: 0x24A1E, size: 0x8, addend: 0x0, symName: __ZNKSt3__114priority_queueIjNS_6vectorIjNS_9allocatorIjEEEENS_7greaterIjEEE4sizeB8ue170006Ev, symObjAddr: 0xD328, symBinAddr: 0x100023848, symSize: 0xB0 }
  - { offsetInCU: 0x1874F, offset: 0x24A43, size: 0x8, addend: 0x0, symName: __ZNKSt3__114priority_queueIjNS_6vectorIjNS_9allocatorIjEEEENS_4lessIjEEE3topB8ue170006Ev, symObjAddr: 0xD3D8, symBinAddr: 0x1000238F8, symSize: 0xF8 }
  - { offsetInCU: 0x18774, offset: 0x24A68, size: 0x8, addend: 0x0, symName: __ZNSt3__114priority_queueIjNS_6vectorIjNS_9allocatorIjEEEENS_4lessIjEEE3popEv, symObjAddr: 0xD4D0, symBinAddr: 0x1000239F0, symSize: 0x418 }
  - { offsetInCU: 0x1879C, offset: 0x24A90, size: 0x8, addend: 0x0, symName: __ZNKSt3__114priority_queueIjNS_6vectorIjNS_9allocatorIjEEEENS_7greaterIjEEE3topB8ue170006Ev, symObjAddr: 0xD8E8, symBinAddr: 0x100023E08, symSize: 0xF8 }
  - { offsetInCU: 0x187C1, offset: 0x24AB5, size: 0x8, addend: 0x0, symName: __ZNSt3__114priority_queueIjNS_6vectorIjNS_9allocatorIjEEEENS_7greaterIjEEE3popEv, symObjAddr: 0xD9E0, symBinAddr: 0x100023F00, symSize: 0x418 }
  - { offsetInCU: 0x187E9, offset: 0x24ADD, size: 0x8, addend: 0x0, symName: __ZNSt3__114priority_queueIP7ZombiesNS_6vectorIS2_NS_9allocatorIS2_EEEE10ComparatorE3popEv, symObjAddr: 0xDDF8, symBinAddr: 0x100024318, symSize: 0x418 }
  - { offsetInCU: 0x18810, offset: 0x24B04, size: 0x8, addend: 0x0, symName: __Z7compareRK7ZombiesS1_, symObjAddr: 0xE210, symBinAddr: 0x100024730, symSize: 0xC0 }
  - { offsetInCU: 0x1884E, offset: 0x24B42, size: 0x8, addend: 0x0, symName: __ZN10ZombHolder10statsPrintEv, symObjAddr: 0xE37C, symBinAddr: 0x10002489C, symSize: 0x1DC0 }
  - { offsetInCU: 0x189C0, offset: 0x24CB4, size: 0x8, addend: 0x0, symName: __ZNSt3__15dequeINS_12basic_stringIcNS_11char_traitsIcEENS_9allocatorIcEEEENS4_IS6_EEEixEm, symObjAddr: 0x10310, symBinAddr: 0x10002665C, symSize: 0x3FC }
  - { offsetInCU: 0x18A05, offset: 0x24CF9, size: 0x8, addend: 0x0, symName: __ZNSt3__114priority_queueI7ZombiesNS_6vectorIS1_NS_9allocatorIS1_EEEE11LeastActiveE4pushERKS1_, symObjAddr: 0x1070C, symBinAddr: 0x100026A58, symSize: 0x468 }
  - { offsetInCU: 0x18A3D, offset: 0x24D31, size: 0x8, addend: 0x0, symName: __ZNKSt3__114priority_queueI7ZombiesNS_6vectorIS1_NS_9allocatorIS1_EEEE11LeastActiveE4sizeB8ue170006Ev, symObjAddr: 0x10B74, symBinAddr: 0x100026EC0, symSize: 0xB0 }
  - { offsetInCU: 0x18A62, offset: 0x24D56, size: 0x8, addend: 0x0, symName: __ZNSt3__114priority_queueI7ZombiesNS_6vectorIS1_NS_9allocatorIS1_EEEE11LeastActiveE3popEv, symObjAddr: 0x10C24, symBinAddr: 0x100026F70, symSize: 0x418 }
  - { offsetInCU: 0x18B03, offset: 0x24DF7, size: 0x8, addend: 0x0, symName: __ZNSt3__114priority_queueI7ZombiesNS_6vectorIS1_NS_9allocatorIS1_EEEE11MostActive2EC1B8ue170006Ev, symObjAddr: 0x1103C, symBinAddr: 0x100027388, symSize: 0x78 }
  - { offsetInCU: 0x18B2C, offset: 0x24E20, size: 0x8, addend: 0x0, symName: __ZNSt3__114priority_queueI7ZombiesNS_6vectorIS1_NS_9allocatorIS1_EEEE11MostActive2E4pushERKS1_, symObjAddr: 0x110B4, symBinAddr: 0x100027400, symSize: 0x468 }
  - { offsetInCU: 0x18B64, offset: 0x24E58, size: 0x8, addend: 0x0, symName: __ZNKSt3__114priority_queueI7ZombiesNS_6vectorIS1_NS_9allocatorIS1_EEEE11LeastActiveE3topB8ue170006Ev, symObjAddr: 0x1151C, symBinAddr: 0x100027868, symSize: 0xF8 }
  - { offsetInCU: 0x18B89, offset: 0x24E7D, size: 0x8, addend: 0x0, symName: __ZNKSt3__114priority_queueI7ZombiesNS_6vectorIS1_NS_9allocatorIS1_EEEE11MostActive2E4sizeB8ue170006Ev, symObjAddr: 0x11614, symBinAddr: 0x100027960, symSize: 0xB0 }
  - { offsetInCU: 0x18BAE, offset: 0x24EA2, size: 0x8, addend: 0x0, symName: __ZNKSt3__114priority_queueI7ZombiesNS_6vectorIS1_NS_9allocatorIS1_EEEE11MostActive2E3topB8ue170006Ev, symObjAddr: 0x116C4, symBinAddr: 0x100027A10, symSize: 0xF8 }
  - { offsetInCU: 0x18BD3, offset: 0x24EC7, size: 0x8, addend: 0x0, symName: __ZNSt3__114priority_queueI7ZombiesNS_6vectorIS1_NS_9allocatorIS1_EEEE11MostActive2E3popEv, symObjAddr: 0x117BC, symBinAddr: 0x100027B08, symSize: 0x418 }
  - { offsetInCU: 0x18BFB, offset: 0x24EEF, size: 0x8, addend: 0x0, symName: __ZNSt3__114priority_queueI7ZombiesNS_6vectorIS1_NS_9allocatorIS1_EEEE10MostActiveE4pushERKS1_, symObjAddr: 0x11BD4, symBinAddr: 0x100027F20, symSize: 0x468 }
  - { offsetInCU: 0x18C33, offset: 0x24F27, size: 0x8, addend: 0x0, symName: __ZNKSt3__114priority_queueI7ZombiesNS_6vectorIS1_NS_9allocatorIS1_EEEE10MostActiveE4sizeB8ue170006Ev, symObjAddr: 0x1203C, symBinAddr: 0x100028388, symSize: 0xB0 }
  - { offsetInCU: 0x18C58, offset: 0x24F4C, size: 0x8, addend: 0x0, symName: __ZNSt3__114priority_queueI7ZombiesNS_6vectorIS1_NS_9allocatorIS1_EEEE10MostActiveE3popEv, symObjAddr: 0x120EC, symBinAddr: 0x100028438, symSize: 0x418 }
  - { offsetInCU: 0x18CF9, offset: 0x24FED, size: 0x8, addend: 0x0, symName: __ZNSt3__114priority_queueI7ZombiesNS_6vectorIS1_NS_9allocatorIS1_EEEE12LeastActive2EC1B8ue170006Ev, symObjAddr: 0x12504, symBinAddr: 0x100028850, symSize: 0x78 }
  - { offsetInCU: 0x18D22, offset: 0x25016, size: 0x8, addend: 0x0, symName: __ZNSt3__114priority_queueI7ZombiesNS_6vectorIS1_NS_9allocatorIS1_EEEE12LeastActive2E4pushERKS1_, symObjAddr: 0x1257C, symBinAddr: 0x1000288C8, symSize: 0x468 }
  - { offsetInCU: 0x18D5A, offset: 0x2504E, size: 0x8, addend: 0x0, symName: __ZNKSt3__114priority_queueI7ZombiesNS_6vectorIS1_NS_9allocatorIS1_EEEE10MostActiveE3topB8ue170006Ev, symObjAddr: 0x129E4, symBinAddr: 0x100028D30, symSize: 0xF8 }
  - { offsetInCU: 0x18D7F, offset: 0x25073, size: 0x8, addend: 0x0, symName: __ZNKSt3__114priority_queueI7ZombiesNS_6vectorIS1_NS_9allocatorIS1_EEEE12LeastActive2E4sizeB8ue170006Ev, symObjAddr: 0x12ADC, symBinAddr: 0x100028E28, symSize: 0xB0 }
  - { offsetInCU: 0x18DA4, offset: 0x25098, size: 0x8, addend: 0x0, symName: __ZNKSt3__114priority_queueI7ZombiesNS_6vectorIS1_NS_9allocatorIS1_EEEE12LeastActive2E3topB8ue170006Ev, symObjAddr: 0x12B8C, symBinAddr: 0x100028ED8, symSize: 0xF8 }
  - { offsetInCU: 0x18DC9, offset: 0x250BD, size: 0x8, addend: 0x0, symName: __ZNSt3__114priority_queueI7ZombiesNS_6vectorIS1_NS_9allocatorIS1_EEEE12LeastActive2E3popEv, symObjAddr: 0x12C84, symBinAddr: 0x100028FD0, symSize: 0x418 }
  - { offsetInCU: 0x18DF1, offset: 0x250E5, size: 0x8, addend: 0x0, symName: __ZNSt3__114priority_queueI7ZombiesNS_6vectorIS1_NS_9allocatorIS1_EEEE12LeastActive2ED1Ev, symObjAddr: 0x1309C, symBinAddr: 0x1000293E8, symSize: 0x78 }
  - { offsetInCU: 0x18E1D, offset: 0x25111, size: 0x8, addend: 0x0, symName: __ZNSt3__114priority_queueI7ZombiesNS_6vectorIS1_NS_9allocatorIS1_EEEE11MostActive2ED1Ev, symObjAddr: 0x13114, symBinAddr: 0x100029460, symSize: 0x78 }
  - { offsetInCU: 0x18E49, offset: 0x2513D, size: 0x8, addend: 0x0, symName: _main, symObjAddr: 0x1318C, symBinAddr: 0x1000294D8, symSize: 0x9C8 }
  - { offsetInCU: 0x18E98, offset: 0x2518C, size: 0x8, addend: 0x0, symName: __ZN10ZombHolderC1Ev, symObjAddr: 0x13B54, symBinAddr: 0x100029EA0, symSize: 0x78 }
  - { offsetInCU: 0x18EC1, offset: 0x251B5, size: 0x8, addend: 0x0, symName: __ZN10ZombHolderD1Ev, symObjAddr: 0x13BCC, symBinAddr: 0x100029F18, symSize: 0x78 }
  - { offsetInCU: 0x18EEC, offset: 0x251E0, size: 0x8, addend: 0x0, symName: __ZN7ZombiesC2Ev, symObjAddr: 0x13C44, symBinAddr: 0x100029F90, symSize: 0x214 }
  - { offsetInCU: 0x18F1F, offset: 0x25213, size: 0x8, addend: 0x0, symName: __ZN7ZombiesD2Ev, symObjAddr: 0x14504, symBinAddr: 0x10002A1A4, symSize: 0x78 }
  - { offsetInCU: 0x18F54, offset: 0x25248, size: 0x8, addend: 0x0, symName: __ZNKSt3__16__lessIvvEclB8ue170006IjjEEbRKT_RKT0_, symObjAddr: 0x1483C, symBinAddr: 0x10002A4DC, symSize: 0x13C }
  - { offsetInCU: 0x18FA7, offset: 0x2529B, size: 0x8, addend: 0x0, symName: __ZNSt3__114priority_queueI7ZombiesNS_6vectorIS1_NS_9allocatorIS1_EEEE12LeastActive2ED2Ev, symObjAddr: 0x14978, symBinAddr: 0x10002A618, symSize: 0x78 }
  - { offsetInCU: 0x18FD3, offset: 0x252C7, size: 0x8, addend: 0x0, symName: __ZNSt3__16vectorI7ZombiesNS_9allocatorIS1_EEED1B8ue170006Ev, symObjAddr: 0x149F0, symBinAddr: 0x10002A690, symSize: 0x78 }
  - { offsetInCU: 0x18FFC, offset: 0x252F0, size: 0x8, addend: 0x0, symName: __ZNSt3__16vectorI7ZombiesNS_9allocatorIS1_EEED2B8ue170006Ev, symObjAddr: 0x14A68, symBinAddr: 0x10002A708, symSize: 0x298 }
  - { offsetInCU: 0x19026, offset: 0x2531A, size: 0x8, addend: 0x0, symName: __ZNSt3__16vectorI7ZombiesNS_9allocatorIS1_EEE16__destroy_vectorC1B8ue170006ERS4_, symObjAddr: 0x14D00, symBinAddr: 0x10002A9A0, symSize: 0x80 }
  - { offsetInCU: 0x1905E, offset: 0x25352, size: 0x8, addend: 0x0, symName: __ZNSt3__16vectorI7ZombiesNS_9allocatorIS1_EEE16__destroy_vectorclB8ue170006Ev, symObjAddr: 0x14D80, symBinAddr: 0x10002AA20, symSize: 0x43C }
  - { offsetInCU: 0x19083, offset: 0x25377, size: 0x8, addend: 0x0, symName: __ZNSt3__16vectorI7ZombiesNS_9allocatorIS1_EEE16__destroy_vectorC2B8ue170006ERS4_, symObjAddr: 0x151BC, symBinAddr: 0x10002AE5C, symSize: 0x108 }
  - { offsetInCU: 0x190BB, offset: 0x253AF, size: 0x8, addend: 0x0, symName: __ZNSt3__16vectorI7ZombiesNS_9allocatorIS1_EEE7__clearB8ue170006Ev, symObjAddr: 0x152C4, symBinAddr: 0x10002AF64, symSize: 0xB0 }
  - { offsetInCU: 0x190E0, offset: 0x253D4, size: 0x8, addend: 0x0, symName: __ZNKSt3__16vectorI7ZombiesNS_9allocatorIS1_EEE17__annotate_deleteB8ue170006Ev, symObjAddr: 0x15374, symBinAddr: 0x10002B014, symSize: 0x388 }
  - { offsetInCU: 0x19105, offset: 0x253F9, size: 0x8, addend: 0x0, symName: __ZNSt3__116allocator_traitsINS_9allocatorI7ZombiesEEE10deallocateB8ue170006ERS3_PS2_m, symObjAddr: 0x156FC, symBinAddr: 0x10002B39C, symSize: 0x34 }
  - { offsetInCU: 0x19147, offset: 0x2543B, size: 0x8, addend: 0x0, symName: __ZNSt3__16vectorI7ZombiesNS_9allocatorIS1_EEE7__allocB8ue170006Ev, symObjAddr: 0x15730, symBinAddr: 0x10002B3D0, symSize: 0xE4 }
  - { offsetInCU: 0x1916C, offset: 0x25460, size: 0x8, addend: 0x0, symName: __ZNKSt3__16vectorI7ZombiesNS_9allocatorIS1_EEE8capacityB8ue170006Ev, symObjAddr: 0x15814, symBinAddr: 0x10002B4B4, symSize: 0x144 }
  - { offsetInCU: 0x19191, offset: 0x25485, size: 0x8, addend: 0x0, symName: __ZNSt3__16vectorI7ZombiesNS_9allocatorIS1_EEE22__base_destruct_at_endB8ue170006EPS1_, symObjAddr: 0x15958, symBinAddr: 0x10002B5F8, symSize: 0x1FC }
  - { offsetInCU: 0x191D4, offset: 0x254C8, size: 0x8, addend: 0x0, symName: __ZNSt3__116allocator_traitsINS_9allocatorI7ZombiesEEE7destroyB8ue170006IS2_vEEvRS3_PT_, symObjAddr: 0x15B54, symBinAddr: 0x10002B7F4, symSize: 0x2C }
  - { offsetInCU: 0x19211, offset: 0x25505, size: 0x8, addend: 0x0, symName: __ZNSt3__19allocatorI7ZombiesE7destroyB8ue170006EPS1_, symObjAddr: 0x15B94, symBinAddr: 0x10002B834, symSize: 0x9C }
  - { offsetInCU: 0x19244, offset: 0x25538, size: 0x8, addend: 0x0, symName: __ZNKSt3__16vectorI7ZombiesNS_9allocatorIS1_EEE31__annotate_contiguous_containerEPKvS6_S6_S6_, symObjAddr: 0x15C30, symBinAddr: 0x10002B8D0, symSize: 0x9C }
  - { offsetInCU: 0x192A5, offset: 0x25599, size: 0x8, addend: 0x0, symName: __ZNKSt3__16vectorI7ZombiesNS_9allocatorIS1_EEE4dataB8ue170006Ev, symObjAddr: 0x15CCC, symBinAddr: 0x10002B96C, symSize: 0xB0 }
  - { offsetInCU: 0x192CA, offset: 0x255BE, size: 0x8, addend: 0x0, symName: __ZNKSt3__16vectorI7ZombiesNS_9allocatorIS1_EEE4sizeB8ue170006Ev, symObjAddr: 0x15D7C, symBinAddr: 0x10002BA1C, symSize: 0xF8 }
  - { offsetInCU: 0x192EF, offset: 0x255E3, size: 0x8, addend: 0x0, symName: __ZNSt3__19allocatorI7ZombiesE10deallocateB8ue170006EPS1_m, symObjAddr: 0x15E74, symBinAddr: 0x10002BB14, symSize: 0x7C }
  - { offsetInCU: 0x19330, offset: 0x25624, size: 0x8, addend: 0x0, symName: __ZNSt3__117__compressed_pairIP7ZombiesNS_9allocatorIS1_EEE6secondB8ue170006Ev, symObjAddr: 0x16018, symBinAddr: 0x10002BB90, symSize: 0x108 }
  - { offsetInCU: 0x19355, offset: 0x25649, size: 0x8, addend: 0x0, symName: __ZNSt3__122__compressed_pair_elemINS_9allocatorI7ZombiesEELi1ELb1EE5__getB8ue170006Ev, symObjAddr: 0x16120, symBinAddr: 0x10002BC98, symSize: 0x74 }
  - { offsetInCU: 0x1937A, offset: 0x2566E, size: 0x8, addend: 0x0, symName: __ZNKSt3__16vectorI7ZombiesNS_9allocatorIS1_EEE9__end_capB8ue170006Ev, symObjAddr: 0x16194, symBinAddr: 0x10002BD0C, symSize: 0x100 }
  - { offsetInCU: 0x1939F, offset: 0x25693, size: 0x8, addend: 0x0, symName: __ZNKSt3__117__compressed_pairIP7ZombiesNS_9allocatorIS1_EEE5firstB8ue170006Ev, symObjAddr: 0x16294, symBinAddr: 0x10002BE0C, symSize: 0x124 }
  - { offsetInCU: 0x193C4, offset: 0x256B8, size: 0x8, addend: 0x0, symName: __ZNKSt3__122__compressed_pair_elemIP7ZombiesLi0ELb0EE5__getB8ue170006Ev, symObjAddr: 0x163B8, symBinAddr: 0x10002BF30, symSize: 0xAC }
  - { offsetInCU: 0x193E9, offset: 0x256DD, size: 0x8, addend: 0x0, symName: __ZNSt3__114priority_queueI7ZombiesNS_6vectorIS1_NS_9allocatorIS1_EEEE11MostActive2ED2Ev, symObjAddr: 0x16464, symBinAddr: 0x10002BFDC, symSize: 0x78 }
  - { offsetInCU: 0x19415, offset: 0x25709, size: 0x8, addend: 0x0, symName: __ZN10ZombHolderC2Ev, symObjAddr: 0x164DC, symBinAddr: 0x10002C054, symSize: 0x4CC }
  - { offsetInCU: 0x1943E, offset: 0x25732, size: 0x8, addend: 0x0, symName: __ZNSt3__114priority_queueIP7ZombiesNS_6vectorIS2_NS_9allocatorIS2_EEEE10ComparatorEC1B8ue170006Ev, symObjAddr: 0x169A8, symBinAddr: 0x10002C520, symSize: 0x78 }
  - { offsetInCU: 0x19467, offset: 0x2575B, size: 0x8, addend: 0x0, symName: __ZNSt3__15dequeI7ZombiesNS_9allocatorIS1_EEEC1B8ue170006Ev, symObjAddr: 0x16A20, symBinAddr: 0x10002C598, symSize: 0x78 }
  - { offsetInCU: 0x19490, offset: 0x25784, size: 0x8, addend: 0x0, symName: __ZNSt3__16vectorINS_12basic_stringIcNS_11char_traitsIcEENS_9allocatorIcEEEENS4_IS6_EEEC1B8ue170006Ev, symObjAddr: 0x16A98, symBinAddr: 0x10002C610, symSize: 0x78 }
  - { offsetInCU: 0x194B9, offset: 0x257AD, size: 0x8, addend: 0x0, symName: __ZNSt3__114priority_queueI7ZombiesNS_6vectorIS1_NS_9allocatorIS1_EEEE11LeastActiveEC1B8ue170006Ev, symObjAddr: 0x16B10, symBinAddr: 0x10002C688, symSize: 0x78 }
  - { offsetInCU: 0x194E2, offset: 0x257D6, size: 0x8, addend: 0x0, symName: __ZNSt3__114priority_queueI7ZombiesNS_6vectorIS1_NS_9allocatorIS1_EEEE10MostActiveEC1B8ue170006Ev, symObjAddr: 0x16B88, symBinAddr: 0x10002C700, symSize: 0x78 }
  - { offsetInCU: 0x1950B, offset: 0x257FF, size: 0x8, addend: 0x0, symName: __ZNSt3__15dequeINS_12basic_stringIcNS_11char_traitsIcEENS_9allocatorIcEEEENS4_IS6_EEEC1B8ue170006Ev, symObjAddr: 0x16C00, symBinAddr: 0x10002C778, symSize: 0x78 }
  - { offsetInCU: 0x19534, offset: 0x25828, size: 0x8, addend: 0x0, symName: __ZNSt3__114priority_queueIjNS_6vectorIjNS_9allocatorIjEEEENS_7greaterIjEEEC1B8ue170006Ev, symObjAddr: 0x16C78, symBinAddr: 0x10002C7F0, symSize: 0x78 }
  - { offsetInCU: 0x1955D, offset: 0x25851, size: 0x8, addend: 0x0, symName: __ZNSt3__114priority_queueIjNS_6vectorIjNS_9allocatorIjEEEENS_4lessIjEEEC1B8ue170006Ev, symObjAddr: 0x16CF0, symBinAddr: 0x10002C868, symSize: 0x78 }
  - { offsetInCU: 0x19586, offset: 0x2587A, size: 0x8, addend: 0x0, symName: __ZNSt3__15dequeI7ZombiesNS_9allocatorIS1_EEED1B8ue170006Ev, symObjAddr: 0x16D68, symBinAddr: 0x10002C8E0, symSize: 0x78 }
  - { offsetInCU: 0x195AF, offset: 0x258A3, size: 0x8, addend: 0x0, symName: __ZNSt3__114priority_queueIP7ZombiesNS_6vectorIS2_NS_9allocatorIS2_EEEE10ComparatorED1Ev, symObjAddr: 0x16DE0, symBinAddr: 0x10002C958, symSize: 0x78 }
  - { offsetInCU: 0x195DB, offset: 0x258CF, size: 0x8, addend: 0x0, symName: __ZNSt3__114priority_queueIP7ZombiesNS_6vectorIS2_NS_9allocatorIS2_EEEE10ComparatorEC2B8ue170006Ev, symObjAddr: 0x16E58, symBinAddr: 0x10002C9D0, symSize: 0x78 }
  - { offsetInCU: 0x19604, offset: 0x258F8, size: 0x8, addend: 0x0, symName: __ZNSt3__16vectorIP7ZombiesNS_9allocatorIS2_EEEC1B8ue170006Ev, symObjAddr: 0x16ED0, symBinAddr: 0x10002CA48, symSize: 0x78 }
  - { offsetInCU: 0x1962D, offset: 0x25921, size: 0x8, addend: 0x0, symName: __ZNSt3__16vectorIP7ZombiesNS_9allocatorIS2_EEEC2B8ue170006Ev, symObjAddr: 0x16F48, symBinAddr: 0x10002CAC0, symSize: 0x340 }
  - { offsetInCU: 0x1965C, offset: 0x25950, size: 0x8, addend: 0x0, symName: __ZNSt3__117__compressed_pairIPP7ZombiesNS_9allocatorIS2_EEEC1B8ue170006IDnNS_18__default_init_tagEEEOT_OT0_, symObjAddr: 0x17288, symBinAddr: 0x10002CE00, symSize: 0x88 }
  - { offsetInCU: 0x196B3, offset: 0x259A7, size: 0x8, addend: 0x0, symName: __ZNSt3__117__compressed_pairIPP7ZombiesNS_9allocatorIS2_EEEC2B8ue170006IDnNS_18__default_init_tagEEEOT_OT0_, symObjAddr: 0x17310, symBinAddr: 0x10002CE88, symSize: 0x140 }
  - { offsetInCU: 0x1970A, offset: 0x259FE, size: 0x8, addend: 0x0, symName: __ZNSt3__122__compressed_pair_elemIPP7ZombiesLi0ELb0EEC2B8ue170006IDnvEEOT_, symObjAddr: 0x17450, symBinAddr: 0x10002CFC8, symSize: 0xBC }
  - { offsetInCU: 0x1974B, offset: 0x25A3F, size: 0x8, addend: 0x0, symName: __ZNSt3__122__compressed_pair_elemINS_9allocatorIP7ZombiesEELi1ELb1EEC2B8ue170006ENS_18__default_init_tagE, symObjAddr: 0x1750C, symBinAddr: 0x10002D084, symSize: 0x84 }
  - { offsetInCU: 0x1977F, offset: 0x25A73, size: 0x8, addend: 0x0, symName: __ZNSt3__19allocatorIP7ZombiesEC2B8ue170006Ev, symObjAddr: 0x17590, symBinAddr: 0x10002D108, symSize: 0x84 }
  - { offsetInCU: 0x197A8, offset: 0x25A9C, size: 0x8, addend: 0x0, symName: __ZNSt3__116__non_trivial_ifILb1ENS_9allocatorIP7ZombiesEEEC2B8ue170006Ev, symObjAddr: 0x17614, symBinAddr: 0x10002D18C, symSize: 0x54 }
  - { offsetInCU: 0x197D1, offset: 0x25AC5, size: 0x8, addend: 0x0, symName: __ZNSt3__15dequeI7ZombiesNS_9allocatorIS1_EEEC2B8ue170006Ev, symObjAddr: 0x17668, symBinAddr: 0x10002D1E0, symSize: 0x324 }
  - { offsetInCU: 0x197FB, offset: 0x25AEF, size: 0x8, addend: 0x0, symName: __ZNSt3__114__split_bufferIP7ZombiesNS_9allocatorIS2_EEEC1B8ue170006Ev, symObjAddr: 0x1798C, symBinAddr: 0x10002D504, symSize: 0x78 }
  - { offsetInCU: 0x19829, offset: 0x25B1D, size: 0x8, addend: 0x0, symName: __ZNSt3__117__compressed_pairImNS_9allocatorI7ZombiesEEEC1B8ue170006IiNS_18__default_init_tagEEEOT_OT0_, symObjAddr: 0x17A04, symBinAddr: 0x10002D57C, symSize: 0x88 }
  - { offsetInCU: 0x19880, offset: 0x25B74, size: 0x8, addend: 0x0, symName: __ZNKSt3__15dequeI7ZombiesNS_9allocatorIS1_EEE14__annotate_newB8ue170006Em, symObjAddr: 0x17A8C, symBinAddr: 0x10002D604, symSize: 0x21C }
  - { offsetInCU: 0x198B4, offset: 0x25BA8, size: 0x8, addend: 0x0, symName: __ZNSt3__114__split_bufferIP7ZombiesNS_9allocatorIS2_EEEC2B8ue170006Ev, symObjAddr: 0x17CA8, symBinAddr: 0x10002D820, symSize: 0x378 }
  - { offsetInCU: 0x198DE, offset: 0x25BD2, size: 0x8, addend: 0x0, symName: __ZNSt3__117__compressed_pairImNS_9allocatorI7ZombiesEEEC2B8ue170006IiNS_18__default_init_tagEEEOT_OT0_, symObjAddr: 0x18020, symBinAddr: 0x10002DB98, symSize: 0x140 }
  - { offsetInCU: 0x19935, offset: 0x25C29, size: 0x8, addend: 0x0, symName: __ZNSt3__122__compressed_pair_elemImLi0ELb0EEC2B8ue170006IivEEOT_, symObjAddr: 0x18160, symBinAddr: 0x10002DCD8, symSize: 0x16C }
  - { offsetInCU: 0x19976, offset: 0x25C6A, size: 0x8, addend: 0x0, symName: __ZNSt3__122__compressed_pair_elemINS_9allocatorI7ZombiesEELi1ELb1EEC2B8ue170006ENS_18__default_init_tagE, symObjAddr: 0x182CC, symBinAddr: 0x10002DE44, symSize: 0x84 }
  - { offsetInCU: 0x199AA, offset: 0x25C9E, size: 0x8, addend: 0x0, symName: __ZNSt3__19allocatorI7ZombiesEC2B8ue170006Ev, symObjAddr: 0x18350, symBinAddr: 0x10002DEC8, symSize: 0x84 }
  - { offsetInCU: 0x199D3, offset: 0x25CC7, size: 0x8, addend: 0x0, symName: __ZNSt3__116__non_trivial_ifILb1ENS_9allocatorI7ZombiesEEEC2B8ue170006Ev, symObjAddr: 0x183D4, symBinAddr: 0x10002DF4C, symSize: 0x54 }
  - { offsetInCU: 0x199FC, offset: 0x25CF0, size: 0x8, addend: 0x0, symName: __ZNKSt3__15dequeI7ZombiesNS_9allocatorIS1_EEE18__annotate_from_toB8ue170006EmmNS4_22__asan_annotation_typeENS4_23__asan_annotation_placeE, symObjAddr: 0x18428, symBinAddr: 0x10002DFA0, symSize: 0x1694 }
  - { offsetInCU: 0x19BB7, offset: 0x25EAB, size: 0x8, addend: 0x0, symName: __ZNKSt3__114__split_bufferIP7ZombiesNS_9allocatorIS2_EEE4sizeB8ue170006Ev, symObjAddr: 0x19ABC, symBinAddr: 0x10002F634, symSize: 0xFC }
  - { offsetInCU: 0x19BDC, offset: 0x25ED0, size: 0x8, addend: 0x0, symName: __ZNKSt3__114__split_bufferIP7ZombiesNS_9allocatorIS2_EEE5beginB8ue170006Ev, symObjAddr: 0x19BB8, symBinAddr: 0x10002F730, symSize: 0xB0 }
  - { offsetInCU: 0x19C01, offset: 0x25EF5, size: 0x8, addend: 0x0, symName: __ZNKSt3__15dequeI7ZombiesNS_9allocatorIS1_EEE5emptyB8ue170006Ev, symObjAddr: 0x19C68, symBinAddr: 0x10002F7E0, symSize: 0x78 }
  - { offsetInCU: 0x19C26, offset: 0x25F1A, size: 0x8, addend: 0x0, symName: __ZNKSt3__15dequeI7ZombiesNS_9allocatorIS1_EEE44__annotate_double_ended_contiguous_containerB8ue170006EPKvS6_S6_S6_S6_S6_, symObjAddr: 0x19CE0, symBinAddr: 0x10002F858, symSize: 0x78 }
  - { offsetInCU: 0x19C93, offset: 0x25F87, size: 0x8, addend: 0x0, symName: __ZNSt3__16vectorINS_12basic_stringIcNS_11char_traitsIcEENS_9allocatorIcEEEENS4_IS6_EEEC2B8ue170006Ev, symObjAddr: 0x19D58, symBinAddr: 0x10002F8D0, symSize: 0x340 }
  - { offsetInCU: 0x19CBD, offset: 0x25FB1, size: 0x8, addend: 0x0, symName: __ZNSt3__114priority_queueI7ZombiesNS_6vectorIS1_NS_9allocatorIS1_EEEE11LeastActiveEC2B8ue170006Ev, symObjAddr: 0x1A478, symBinAddr: 0x10002FC10, symSize: 0x78 }
  - { offsetInCU: 0x19CE6, offset: 0x25FDA, size: 0x8, addend: 0x0, symName: __ZNSt3__16vectorI7ZombiesNS_9allocatorIS1_EEEC1B8ue170006Ev, symObjAddr: 0x1A4F0, symBinAddr: 0x10002FC88, symSize: 0x78 }
  - { offsetInCU: 0x19D0F, offset: 0x26003, size: 0x8, addend: 0x0, symName: __ZNSt3__16vectorI7ZombiesNS_9allocatorIS1_EEEC2B8ue170006Ev, symObjAddr: 0x1A568, symBinAddr: 0x10002FD00, symSize: 0x340 }
  - { offsetInCU: 0x19D39, offset: 0x2602D, size: 0x8, addend: 0x0, symName: __ZNSt3__117__compressed_pairIP7ZombiesNS_9allocatorIS1_EEEC1B8ue170006IDnNS_18__default_init_tagEEEOT_OT0_, symObjAddr: 0x1A8A8, symBinAddr: 0x100030040, symSize: 0x88 }
  - { offsetInCU: 0x19D90, offset: 0x26084, size: 0x8, addend: 0x0, symName: __ZNSt3__117__compressed_pairIP7ZombiesNS_9allocatorIS1_EEEC2B8ue170006IDnNS_18__default_init_tagEEEOT_OT0_, symObjAddr: 0x1A930, symBinAddr: 0x1000300C8, symSize: 0x140 }
  - { offsetInCU: 0x19DE7, offset: 0x260DB, size: 0x8, addend: 0x0, symName: __ZNSt3__122__compressed_pair_elemIP7ZombiesLi0ELb0EEC2B8ue170006IDnvEEOT_, symObjAddr: 0x1AA70, symBinAddr: 0x100030208, symSize: 0xBC }
  - { offsetInCU: 0x19E28, offset: 0x2611C, size: 0x8, addend: 0x0, symName: __ZNSt3__114priority_queueI7ZombiesNS_6vectorIS1_NS_9allocatorIS1_EEEE10MostActiveEC2B8ue170006Ev, symObjAddr: 0x1AB2C, symBinAddr: 0x1000302C4, symSize: 0x78 }
  - { offsetInCU: 0x19E51, offset: 0x26145, size: 0x8, addend: 0x0, symName: __ZNSt3__15dequeINS_12basic_stringIcNS_11char_traitsIcEENS_9allocatorIcEEEENS4_IS6_EEEC2B8ue170006Ev, symObjAddr: 0x1ABA4, symBinAddr: 0x10003033C, symSize: 0x324 }
  - { offsetInCU: 0x19E7B, offset: 0x2616F, size: 0x8, addend: 0x0, symName: __ZNSt3__114__split_bufferIPNS_12basic_stringIcNS_11char_traitsIcEENS_9allocatorIcEEEENS4_IS7_EEEC1B8ue170006Ev, symObjAddr: 0x1AEC8, symBinAddr: 0x100030660, symSize: 0x78 }
  - { offsetInCU: 0x19EA4, offset: 0x26198, size: 0x8, addend: 0x0, symName: __ZNSt3__117__compressed_pairImNS_9allocatorINS_12basic_stringIcNS_11char_traitsIcEENS1_IcEEEEEEEC1B8ue170006IiNS_18__default_init_tagEEEOT_OT0_, symObjAddr: 0x1AF40, symBinAddr: 0x1000306D8, symSize: 0x88 }
  - { offsetInCU: 0x19EFB, offset: 0x261EF, size: 0x8, addend: 0x0, symName: __ZNKSt3__15dequeINS_12basic_stringIcNS_11char_traitsIcEENS_9allocatorIcEEEENS4_IS6_EEE14__annotate_newB8ue170006Em, symObjAddr: 0x1AFC8, symBinAddr: 0x100030760, symSize: 0x21C }
  - { offsetInCU: 0x19F2F, offset: 0x26223, size: 0x8, addend: 0x0, symName: __ZNSt3__114__split_bufferIPNS_12basic_stringIcNS_11char_traitsIcEENS_9allocatorIcEEEENS4_IS7_EEEC2B8ue170006Ev, symObjAddr: 0x1B1E4, symBinAddr: 0x10003097C, symSize: 0x378 }
  - { offsetInCU: 0x19F59, offset: 0x2624D, size: 0x8, addend: 0x0, symName: __ZNSt3__117__compressed_pairIPPNS_12basic_stringIcNS_11char_traitsIcEENS_9allocatorIcEEEENS4_IS7_EEEC1B8ue170006IDnNS_18__default_init_tagEEEOT_OT0_, symObjAddr: 0x1B55C, symBinAddr: 0x100030CF4, symSize: 0x88 }
  - { offsetInCU: 0x19FB0, offset: 0x262A4, size: 0x8, addend: 0x0, symName: __ZNSt3__117__compressed_pairIPPNS_12basic_stringIcNS_11char_traitsIcEENS_9allocatorIcEEEENS4_IS7_EEEC2B8ue170006IDnNS_18__default_init_tagEEEOT_OT0_, symObjAddr: 0x1B5E4, symBinAddr: 0x100030D7C, symSize: 0x140 }
  - { offsetInCU: 0x1A007, offset: 0x262FB, size: 0x8, addend: 0x0, symName: __ZNSt3__122__compressed_pair_elemIPPNS_12basic_stringIcNS_11char_traitsIcEENS_9allocatorIcEEEELi0ELb0EEC2B8ue170006IDnvEEOT_, symObjAddr: 0x1B724, symBinAddr: 0x100030EBC, symSize: 0xBC }
  - { offsetInCU: 0x1A048, offset: 0x2633C, size: 0x8, addend: 0x0, symName: __ZNSt3__122__compressed_pair_elemINS_9allocatorIPNS_12basic_stringIcNS_11char_traitsIcEENS1_IcEEEEEELi1ELb1EEC2B8ue170006ENS_18__default_init_tagE, symObjAddr: 0x1B7E0, symBinAddr: 0x100030F78, symSize: 0x84 }
  - { offsetInCU: 0x1A07C, offset: 0x26370, size: 0x8, addend: 0x0, symName: __ZNSt3__19allocatorIPNS_12basic_stringIcNS_11char_traitsIcEENS0_IcEEEEEC2B8ue170006Ev, symObjAddr: 0x1B864, symBinAddr: 0x100030FFC, symSize: 0x84 }
  - { offsetInCU: 0x1A0A5, offset: 0x26399, size: 0x8, addend: 0x0, symName: __ZNSt3__116__non_trivial_ifILb1ENS_9allocatorIPNS_12basic_stringIcNS_11char_traitsIcEENS1_IcEEEEEEEC2B8ue170006Ev, symObjAddr: 0x1B8E8, symBinAddr: 0x100031080, symSize: 0x54 }
  - { offsetInCU: 0x1A0CE, offset: 0x263C2, size: 0x8, addend: 0x0, symName: __ZNSt3__117__compressed_pairImNS_9allocatorINS_12basic_stringIcNS_11char_traitsIcEENS1_IcEEEEEEEC2B8ue170006IiNS_18__default_init_tagEEEOT_OT0_, symObjAddr: 0x1B93C, symBinAddr: 0x1000310D4, symSize: 0x140 }
  - { offsetInCU: 0x1A125, offset: 0x26419, size: 0x8, addend: 0x0, symName: __ZNKSt3__15dequeINS_12basic_stringIcNS_11char_traitsIcEENS_9allocatorIcEEEENS4_IS6_EEE18__annotate_from_toB8ue170006EmmNS8_22__asan_annotation_typeENS8_23__asan_annotation_placeE, symObjAddr: 0x1BA7C, symBinAddr: 0x100031214, symSize: 0x1694 }
  - { offsetInCU: 0x1A2E0, offset: 0x265D4, size: 0x8, addend: 0x0, symName: __ZNKSt3__114__split_bufferIPNS_12basic_stringIcNS_11char_traitsIcEENS_9allocatorIcEEEENS4_IS7_EEE4sizeB8ue170006Ev, symObjAddr: 0x1D110, symBinAddr: 0x1000328A8, symSize: 0xFC }
  - { offsetInCU: 0x1A305, offset: 0x265F9, size: 0x8, addend: 0x0, symName: __ZNKSt3__114__split_bufferIPNS_12basic_stringIcNS_11char_traitsIcEENS_9allocatorIcEEEENS4_IS7_EEE5beginB8ue170006Ev, symObjAddr: 0x1D20C, symBinAddr: 0x1000329A4, symSize: 0xB0 }
  - { offsetInCU: 0x1A32A, offset: 0x2661E, size: 0x8, addend: 0x0, symName: __ZNKSt3__15dequeINS_12basic_stringIcNS_11char_traitsIcEENS_9allocatorIcEEEENS4_IS6_EEE5emptyB8ue170006Ev, symObjAddr: 0x1D2BC, symBinAddr: 0x100032A54, symSize: 0x78 }
  - { offsetInCU: 0x1A34F, offset: 0x26643, size: 0x8, addend: 0x0, symName: __ZNKSt3__15dequeINS_12basic_stringIcNS_11char_traitsIcEENS_9allocatorIcEEEENS4_IS6_EEE44__annotate_double_ended_contiguous_containerB8ue170006EPKvSA_SA_SA_SA_SA_, symObjAddr: 0x1D348, symBinAddr: 0x100032ACC, symSize: 0x78 }
  - { offsetInCU: 0x1A3BC, offset: 0x266B0, size: 0x8, addend: 0x0, symName: __ZNSt3__114priority_queueIjNS_6vectorIjNS_9allocatorIjEEEENS_7greaterIjEEEC2B8ue170006Ev, symObjAddr: 0x1D3C0, symBinAddr: 0x100032B44, symSize: 0x78 }
  - { offsetInCU: 0x1A3E5, offset: 0x266D9, size: 0x8, addend: 0x0, symName: __ZNSt3__16vectorIjNS_9allocatorIjEEEC1B8ue170006Ev, symObjAddr: 0x1D438, symBinAddr: 0x100032BBC, symSize: 0x78 }
  - { offsetInCU: 0x1A40E, offset: 0x26702, size: 0x8, addend: 0x0, symName: __ZNSt3__16vectorIjNS_9allocatorIjEEEC2B8ue170006Ev, symObjAddr: 0x1D4B0, symBinAddr: 0x100032C34, symSize: 0x340 }
  - { offsetInCU: 0x1A438, offset: 0x2672C, size: 0x8, addend: 0x0, symName: __ZNSt3__117__compressed_pairIPjNS_9allocatorIjEEEC1B8ue170006IDnNS_18__default_init_tagEEEOT_OT0_, symObjAddr: 0x1D7F0, symBinAddr: 0x100032F74, symSize: 0x88 }
  - { offsetInCU: 0x1A48F, offset: 0x26783, size: 0x8, addend: 0x0, symName: __ZNSt3__117__compressed_pairIPjNS_9allocatorIjEEEC2B8ue170006IDnNS_18__default_init_tagEEEOT_OT0_, symObjAddr: 0x1D878, symBinAddr: 0x100032FFC, symSize: 0x140 }
  - { offsetInCU: 0x1A4E6, offset: 0x267DA, size: 0x8, addend: 0x0, symName: __ZNSt3__122__compressed_pair_elemIPjLi0ELb0EEC2B8ue170006IDnvEEOT_, symObjAddr: 0x1D9B8, symBinAddr: 0x10003313C, symSize: 0xBC }
  - { offsetInCU: 0x1A527, offset: 0x2681B, size: 0x8, addend: 0x0, symName: __ZNSt3__122__compressed_pair_elemINS_9allocatorIjEELi1ELb1EEC2B8ue170006ENS_18__default_init_tagE, symObjAddr: 0x1DA74, symBinAddr: 0x1000331F8, symSize: 0x84 }
  - { offsetInCU: 0x1A55B, offset: 0x2684F, size: 0x8, addend: 0x0, symName: __ZNSt3__19allocatorIjEC2B8ue170006Ev, symObjAddr: 0x1DAF8, symBinAddr: 0x10003327C, symSize: 0x84 }
  - { offsetInCU: 0x1A584, offset: 0x26878, size: 0x8, addend: 0x0, symName: __ZNSt3__116__non_trivial_ifILb1ENS_9allocatorIjEEEC2B8ue170006Ev, symObjAddr: 0x1DB7C, symBinAddr: 0x100033300, symSize: 0x54 }
  - { offsetInCU: 0x1A5AD, offset: 0x268A1, size: 0x8, addend: 0x0, symName: __ZNSt3__114priority_queueIjNS_6vectorIjNS_9allocatorIjEEEENS_4lessIjEEEC2B8ue170006Ev, symObjAddr: 0x1DBD0, symBinAddr: 0x100033354, symSize: 0x78 }
  - { offsetInCU: 0x1A5D6, offset: 0x268CA, size: 0x8, addend: 0x0, symName: __ZNSt3__15dequeI7ZombiesNS_9allocatorIS1_EEED2B8ue170006Ev, symObjAddr: 0x1DC48, symBinAddr: 0x1000333CC, symSize: 0x2A0 }
  - { offsetInCU: 0x1A62B, offset: 0x2691F, size: 0x8, addend: 0x0, symName: __ZNSt3__15dequeI7ZombiesNS_9allocatorIS1_EEE5clearEv, symObjAddr: 0x1DEE8, symBinAddr: 0x10003366C, symSize: 0x720 }
  - { offsetInCU: 0x1A68F, offset: 0x26983, size: 0x8, addend: 0x0, symName: __ZNKSt3__15dequeI7ZombiesNS_9allocatorIS1_EEE17__annotate_deleteB8ue170006Ev, symObjAddr: 0x1E608, symBinAddr: 0x100033D8C, symSize: 0x22C }
  - { offsetInCU: 0x1A6D1, offset: 0x269C5, size: 0x8, addend: 0x0, symName: __ZNSt3__114__split_bufferIP7ZombiesNS_9allocatorIS2_EEE5beginB8ue170006Ev, symObjAddr: 0x1E834, symBinAddr: 0x100033FB8, symSize: 0xB0 }
  - { offsetInCU: 0x1A6F6, offset: 0x269EA, size: 0x8, addend: 0x0, symName: __ZNSt3__114__split_bufferIP7ZombiesNS_9allocatorIS2_EEE3endB8ue170006Ev, symObjAddr: 0x1E8E4, symBinAddr: 0x100034068, symSize: 0xB0 }
  - { offsetInCU: 0x1A71B, offset: 0x26A0F, size: 0x8, addend: 0x0, symName: __ZNSt3__15dequeI7ZombiesNS_9allocatorIS1_EEE7__allocB8ue170006Ev, symObjAddr: 0x1E994, symBinAddr: 0x100034118, symSize: 0xE4 }
  - { offsetInCU: 0x1A740, offset: 0x26A34, size: 0x8, addend: 0x0, symName: __ZNSt3__114__split_bufferIP7ZombiesNS_9allocatorIS2_EEED1Ev, symObjAddr: 0x1EA78, symBinAddr: 0x1000341FC, symSize: 0x78 }
  - { offsetInCU: 0x1A76B, offset: 0x26A5F, size: 0x8, addend: 0x0, symName: __ZNSt3__15dequeI7ZombiesNS_9allocatorIS1_EEE5beginB8ue170006Ev, symObjAddr: 0x1EAF0, symBinAddr: 0x100034274, symSize: 0x658 }
  - { offsetInCU: 0x1A7A1, offset: 0x26A95, size: 0x8, addend: 0x0, symName: __ZNSt3__15dequeI7ZombiesNS_9allocatorIS1_EEE3endB8ue170006Ev, symObjAddr: 0x1F148, symBinAddr: 0x1000348CC, symSize: 0x61C }
  - { offsetInCU: 0x1A7E7, offset: 0x26ADB, size: 0x8, addend: 0x0, symName: __ZNKSt3__116__deque_iteratorI7ZombiesPS1_RS1_PS2_lLl102EEdeB8ue170006Ev, symObjAddr: 0x1F828, symBinAddr: 0x100034FAC, symSize: 0xF8 }
  - { offsetInCU: 0x1A80C, offset: 0x26B00, size: 0x8, addend: 0x0, symName: __ZNSt3__116__deque_iteratorI7ZombiesPS1_RS1_PS2_lLl102EEppB8ue170006Ev, symObjAddr: 0x1F920, symBinAddr: 0x1000350A4, symSize: 0x46C }
  - { offsetInCU: 0x1A831, offset: 0x26B25, size: 0x8, addend: 0x0, symName: __ZNSt3__15dequeI7ZombiesNS_9allocatorIS1_EEE6__sizeB8ue170006Ev, symObjAddr: 0x1FD8C, symBinAddr: 0x100035510, symSize: 0x100 }
  - { offsetInCU: 0x1A856, offset: 0x26B4A, size: 0x8, addend: 0x0, symName: __ZNSt3__114__split_bufferIP7ZombiesNS_9allocatorIS2_EEE5frontB8ue170006Ev, symObjAddr: 0x1FE8C, symBinAddr: 0x100035610, symSize: 0xF8 }
  - { offsetInCU: 0x1A87B, offset: 0x26B6F, size: 0x8, addend: 0x0, symName: __ZNSt3__114__split_bufferIP7ZombiesNS_9allocatorIS2_EEE9pop_frontB8ue170006Ev, symObjAddr: 0x1FF84, symBinAddr: 0x100035708, symSize: 0x150 }
  - { offsetInCU: 0x1A8A0, offset: 0x26B94, size: 0x8, addend: 0x0, symName: __ZNKSt3__114__split_bufferIP7ZombiesNS_9allocatorIS2_EEE5emptyB8ue170006Ev, symObjAddr: 0x200D4, symBinAddr: 0x100035858, symSize: 0xFC }
  - { offsetInCU: 0x1A8C5, offset: 0x26BB9, size: 0x8, addend: 0x0, symName: __ZNSt3__116__deque_iteratorI7ZombiesPS1_RS1_PS2_lLl102EEC1B8ue170006ES4_S2_, symObjAddr: 0x201D0, symBinAddr: 0x100035954, symSize: 0x88 }
  - { offsetInCU: 0x1A90C, offset: 0x26C00, size: 0x8, addend: 0x0, symName: __ZNSt3__116__deque_iteratorI7ZombiesPS1_RS1_PS2_lLl102EEC2B8ue170006ES4_S2_, symObjAddr: 0x20258, symBinAddr: 0x1000359DC, symSize: 0x110 }
  - { offsetInCU: 0x1A953, offset: 0x26C47, size: 0x8, addend: 0x0, symName: __ZNSt3__117__compressed_pairImNS_9allocatorI7ZombiesEEE5firstB8ue170006Ev, symObjAddr: 0x2048C, symBinAddr: 0x100035C10, symSize: 0x124 }
  - { offsetInCU: 0x1A978, offset: 0x26C6C, size: 0x8, addend: 0x0, symName: __ZNSt3__122__compressed_pair_elemImLi0ELb0EE5__getB8ue170006Ev, symObjAddr: 0x205B0, symBinAddr: 0x100035D34, symSize: 0xAC }
  - { offsetInCU: 0x1A99D, offset: 0x26C91, size: 0x8, addend: 0x0, symName: __ZNSt3__114__split_bufferIP7ZombiesNS_9allocatorIS2_EEE19__destruct_at_beginB8ue170006EPS2_, symObjAddr: 0x2065C, symBinAddr: 0x100035DE0, symSize: 0x74 }
  - { offsetInCU: 0x1A9D0, offset: 0x26CC4, size: 0x8, addend: 0x0, symName: __ZNSt3__114__split_bufferIP7ZombiesNS_9allocatorIS2_EEE19__destruct_at_beginEPS2_NS_17integral_constantIbLb1EEE, symObjAddr: 0x206D0, symBinAddr: 0x100035E54, symSize: 0xC0 }
  - { offsetInCU: 0x1AA10, offset: 0x26D04, size: 0x8, addend: 0x0, symName: __ZNKSt3__15dequeI7ZombiesNS_9allocatorIS1_EEE22__annotate_whole_blockB8ue170006EmNS4_22__asan_annotation_typeE, symObjAddr: 0x20790, symBinAddr: 0x100035F14, symSize: 0x3C4 }
  - { offsetInCU: 0x1AA80, offset: 0x26D74, size: 0x8, addend: 0x0, symName: __ZNKSt3__15dequeI7ZombiesNS_9allocatorIS1_EEE23__annotate_poison_blockB8ue170006EPKvS6_, symObjAddr: 0x20B54, symBinAddr: 0x1000362D8, symSize: 0x8C }
  - { offsetInCU: 0x1AAC3, offset: 0x26DB7, size: 0x8, addend: 0x0, symName: __ZNSt3__117__compressed_pairImNS_9allocatorI7ZombiesEEE6secondB8ue170006Ev, symObjAddr: 0x20BE0, symBinAddr: 0x100036364, symSize: 0x108 }
  - { offsetInCU: 0x1AAE8, offset: 0x26DDC, size: 0x8, addend: 0x0, symName: __ZNSt3__114__split_bufferIP7ZombiesNS_9allocatorIS2_EEED2Ev, symObjAddr: 0x20CE8, symBinAddr: 0x10003646C, symSize: 0x16C }
  - { offsetInCU: 0x1AB13, offset: 0x26E07, size: 0x8, addend: 0x0, symName: __ZNSt3__114__split_bufferIP7ZombiesNS_9allocatorIS2_EEE5clearB8ue170006Ev, symObjAddr: 0x20E54, symBinAddr: 0x1000365D8, symSize: 0xB4 }
  - { offsetInCU: 0x1AB38, offset: 0x26E2C, size: 0x8, addend: 0x0, symName: __ZNSt3__116allocator_traitsINS_9allocatorIP7ZombiesEEE10deallocateB8ue170006ERS4_PS3_m, symObjAddr: 0x20F08, symBinAddr: 0x10003668C, symSize: 0x34 }
  - { offsetInCU: 0x1AB7A, offset: 0x26E6E, size: 0x8, addend: 0x0, symName: __ZNSt3__114__split_bufferIP7ZombiesNS_9allocatorIS2_EEE7__allocB8ue170006Ev, symObjAddr: 0x20F3C, symBinAddr: 0x1000366C0, symSize: 0xE4 }
  - { offsetInCU: 0x1AB9F, offset: 0x26E93, size: 0x8, addend: 0x0, symName: __ZNKSt3__114__split_bufferIP7ZombiesNS_9allocatorIS2_EEE8capacityB8ue170006Ev, symObjAddr: 0x21020, symBinAddr: 0x1000367A4, symSize: 0x144 }
  - { offsetInCU: 0x1ABC4, offset: 0x26EB8, size: 0x8, addend: 0x0, symName: __ZNSt3__114__split_bufferIP7ZombiesNS_9allocatorIS2_EEE17__destruct_at_endB8ue170006EPS2_, symObjAddr: 0x21164, symBinAddr: 0x1000368E8, symSize: 0x74 }
  - { offsetInCU: 0x1ABF7, offset: 0x26EEB, size: 0x8, addend: 0x0, symName: __ZNSt3__114__split_bufferIP7ZombiesNS_9allocatorIS2_EEE17__destruct_at_endB8ue170006EPS2_NS_17integral_constantIbLb0EEE, symObjAddr: 0x211D8, symBinAddr: 0x10003695C, symSize: 0x224 }
  - { offsetInCU: 0x1AC37, offset: 0x26F2B, size: 0x8, addend: 0x0, symName: __ZNSt3__116allocator_traitsINS_9allocatorIP7ZombiesEEE7destroyB8ue170006IS3_vEEvRS4_PT_, symObjAddr: 0x213FC, symBinAddr: 0x100036B80, symSize: 0x2C }
  - { offsetInCU: 0x1AC74, offset: 0x26F68, size: 0x8, addend: 0x0, symName: __ZNSt3__19allocatorIP7ZombiesE7destroyB8ue170006EPS2_, symObjAddr: 0x2143C, symBinAddr: 0x100036BC0, symSize: 0x4C }
  - { offsetInCU: 0x1ACA7, offset: 0x26F9B, size: 0x8, addend: 0x0, symName: __ZNSt3__19allocatorIP7ZombiesE10deallocateB8ue170006EPS2_m, symObjAddr: 0x21488, symBinAddr: 0x100036C0C, symSize: 0x78 }
  - { offsetInCU: 0x1ACE8, offset: 0x26FDC, size: 0x8, addend: 0x0, symName: __ZNSt3__117__compressed_pairIPP7ZombiesNS_9allocatorIS2_EEE6secondB8ue170006Ev, symObjAddr: 0x21500, symBinAddr: 0x100036C84, symSize: 0x108 }
  - { offsetInCU: 0x1AD0D, offset: 0x27001, size: 0x8, addend: 0x0, symName: __ZNSt3__122__compressed_pair_elemINS_9allocatorIP7ZombiesEELi1ELb1EE5__getB8ue170006Ev, symObjAddr: 0x21608, symBinAddr: 0x100036D8C, symSize: 0x74 }
  - { offsetInCU: 0x1AD32, offset: 0x27026, size: 0x8, addend: 0x0, symName: __ZNKSt3__114__split_bufferIP7ZombiesNS_9allocatorIS2_EEE9__end_capB8ue170006Ev, symObjAddr: 0x2167C, symBinAddr: 0x100036E00, symSize: 0x100 }
  - { offsetInCU: 0x1AD57, offset: 0x2704B, size: 0x8, addend: 0x0, symName: __ZNKSt3__117__compressed_pairIPP7ZombiesNS_9allocatorIS2_EEE5firstB8ue170006Ev, symObjAddr: 0x2177C, symBinAddr: 0x100036F00, symSize: 0x124 }
  - { offsetInCU: 0x1AD7C, offset: 0x27070, size: 0x8, addend: 0x0, symName: __ZNKSt3__122__compressed_pair_elemIPP7ZombiesLi0ELb0EE5__getB8ue170006Ev, symObjAddr: 0x218A0, symBinAddr: 0x100037024, symSize: 0xAC }
  - { offsetInCU: 0x1ADA1, offset: 0x27095, size: 0x8, addend: 0x0, symName: __ZNSt3__114priority_queueIP7ZombiesNS_6vectorIS2_NS_9allocatorIS2_EEEE10ComparatorED2Ev, symObjAddr: 0x2194C, symBinAddr: 0x1000370D0, symSize: 0x78 }
  - { offsetInCU: 0x1ADCD, offset: 0x270C1, size: 0x8, addend: 0x0, symName: __ZNSt3__16vectorIP7ZombiesNS_9allocatorIS2_EEED1B8ue170006Ev, symObjAddr: 0x219C4, symBinAddr: 0x100037148, symSize: 0x78 }
  - { offsetInCU: 0x1ADF6, offset: 0x270EA, size: 0x8, addend: 0x0, symName: __ZNSt3__16vectorIP7ZombiesNS_9allocatorIS2_EEED2B8ue170006Ev, symObjAddr: 0x21A3C, symBinAddr: 0x1000371C0, symSize: 0x298 }
  - { offsetInCU: 0x1AE20, offset: 0x27114, size: 0x8, addend: 0x0, symName: __ZNSt3__16vectorIP7ZombiesNS_9allocatorIS2_EEE16__destroy_vectorC1B8ue170006ERS5_, symObjAddr: 0x21CD4, symBinAddr: 0x100037458, symSize: 0x80 }
  - { offsetInCU: 0x1AE58, offset: 0x2714C, size: 0x8, addend: 0x0, symName: __ZNSt3__16vectorIP7ZombiesNS_9allocatorIS2_EEE16__destroy_vectorclB8ue170006Ev, symObjAddr: 0x21D54, symBinAddr: 0x1000374D8, symSize: 0x43C }
  - { offsetInCU: 0x1AE7D, offset: 0x27171, size: 0x8, addend: 0x0, symName: __ZNSt3__16vectorIP7ZombiesNS_9allocatorIS2_EEE16__destroy_vectorC2B8ue170006ERS5_, symObjAddr: 0x22190, symBinAddr: 0x100037914, symSize: 0x108 }
  - { offsetInCU: 0x1AEB5, offset: 0x271A9, size: 0x8, addend: 0x0, symName: __ZNSt3__16vectorIP7ZombiesNS_9allocatorIS2_EEE7__clearB8ue170006Ev, symObjAddr: 0x22298, symBinAddr: 0x100037A1C, symSize: 0xB0 }
  - { offsetInCU: 0x1AEDA, offset: 0x271CE, size: 0x8, addend: 0x0, symName: __ZNKSt3__16vectorIP7ZombiesNS_9allocatorIS2_EEE17__annotate_deleteB8ue170006Ev, symObjAddr: 0x22348, symBinAddr: 0x100037ACC, symSize: 0x370 }
  - { offsetInCU: 0x1AEFF, offset: 0x271F3, size: 0x8, addend: 0x0, symName: __ZNSt3__16vectorIP7ZombiesNS_9allocatorIS2_EEE7__allocB8ue170006Ev, symObjAddr: 0x226B8, symBinAddr: 0x100037E3C, symSize: 0xE4 }
  - { offsetInCU: 0x1AF24, offset: 0x27218, size: 0x8, addend: 0x0, symName: __ZNKSt3__16vectorIP7ZombiesNS_9allocatorIS2_EEE8capacityB8ue170006Ev, symObjAddr: 0x2279C, symBinAddr: 0x100037F20, symSize: 0x144 }
  - { offsetInCU: 0x1AF49, offset: 0x2723D, size: 0x8, addend: 0x0, symName: __ZNSt3__16vectorIP7ZombiesNS_9allocatorIS2_EEE22__base_destruct_at_endB8ue170006EPS2_, symObjAddr: 0x228E0, symBinAddr: 0x100038064, symSize: 0x1FC }
  - { offsetInCU: 0x1AF8C, offset: 0x27280, size: 0x8, addend: 0x0, symName: __ZNKSt3__16vectorIP7ZombiesNS_9allocatorIS2_EEE31__annotate_contiguous_containerEPKvS7_S7_S7_, symObjAddr: 0x22ADC, symBinAddr: 0x100038260, symSize: 0x9C }
  - { offsetInCU: 0x1AFED, offset: 0x272E1, size: 0x8, addend: 0x0, symName: __ZNKSt3__16vectorIP7ZombiesNS_9allocatorIS2_EEE4dataB8ue170006Ev, symObjAddr: 0x22B78, symBinAddr: 0x1000382FC, symSize: 0xB0 }
  - { offsetInCU: 0x1B012, offset: 0x27306, size: 0x8, addend: 0x0, symName: __ZNKSt3__16vectorIP7ZombiesNS_9allocatorIS2_EEE4sizeB8ue170006Ev, symObjAddr: 0x22C28, symBinAddr: 0x1000383AC, symSize: 0xF8 }
  - { offsetInCU: 0x1B037, offset: 0x2732B, size: 0x8, addend: 0x0, symName: __ZNKSt3__16vectorIP7ZombiesNS_9allocatorIS2_EEE9__end_capB8ue170006Ev, symObjAddr: 0x22D20, symBinAddr: 0x1000384A4, symSize: 0x100 }
  - { offsetInCU: 0x1B05C, offset: 0x27350, size: 0x8, addend: 0x0, symName: __ZN10ZombHolderD2Ev, symObjAddr: 0x22E20, symBinAddr: 0x1000385A4, symSize: 0xD8 }
  - { offsetInCU: 0x1B087, offset: 0x2737B, size: 0x8, addend: 0x0, symName: __ZNSt3__114priority_queueIjNS_6vectorIjNS_9allocatorIjEEEENS_4lessIjEEED1Ev, symObjAddr: 0x22EF8, symBinAddr: 0x10003867C, symSize: 0x78 }
  - { offsetInCU: 0x1B0B3, offset: 0x273A7, size: 0x8, addend: 0x0, symName: __ZNSt3__114priority_queueIjNS_6vectorIjNS_9allocatorIjEEEENS_7greaterIjEEED1Ev, symObjAddr: 0x22F70, symBinAddr: 0x1000386F4, symSize: 0x78 }
  - { offsetInCU: 0x1B0DF, offset: 0x273D3, size: 0x8, addend: 0x0, symName: __ZNSt3__15dequeINS_12basic_stringIcNS_11char_traitsIcEENS_9allocatorIcEEEENS4_IS6_EEED1B8ue170006Ev, symObjAddr: 0x22FE8, symBinAddr: 0x10003876C, symSize: 0x78 }
  - { offsetInCU: 0x1B108, offset: 0x273FC, size: 0x8, addend: 0x0, symName: __ZNSt3__114priority_queueI7ZombiesNS_6vectorIS1_NS_9allocatorIS1_EEEE10MostActiveED1Ev, symObjAddr: 0x23060, symBinAddr: 0x1000387E4, symSize: 0x78 }
  - { offsetInCU: 0x1B134, offset: 0x27428, size: 0x8, addend: 0x0, symName: __ZNSt3__114priority_queueI7ZombiesNS_6vectorIS1_NS_9allocatorIS1_EEEE11LeastActiveED1Ev, symObjAddr: 0x230D8, symBinAddr: 0x10003885C, symSize: 0x78 }
  - { offsetInCU: 0x1B160, offset: 0x27454, size: 0x8, addend: 0x0, symName: __ZNSt3__114priority_queueIjNS_6vectorIjNS_9allocatorIjEEEENS_4lessIjEEED2Ev, symObjAddr: 0x231C8, symBinAddr: 0x1000388D4, symSize: 0x78 }
  - { offsetInCU: 0x1B18C, offset: 0x27480, size: 0x8, addend: 0x0, symName: __ZNSt3__16vectorIjNS_9allocatorIjEEED1B8ue170006Ev, symObjAddr: 0x23240, symBinAddr: 0x10003894C, symSize: 0x78 }
  - { offsetInCU: 0x1B1B5, offset: 0x274A9, size: 0x8, addend: 0x0, symName: __ZNSt3__16vectorIjNS_9allocatorIjEEED2B8ue170006Ev, symObjAddr: 0x232B8, symBinAddr: 0x1000389C4, symSize: 0x298 }
  - { offsetInCU: 0x1B1DF, offset: 0x274D3, size: 0x8, addend: 0x0, symName: __ZNSt3__16vectorIjNS_9allocatorIjEEE16__destroy_vectorC1B8ue170006ERS3_, symObjAddr: 0x23550, symBinAddr: 0x100038C5C, symSize: 0x80 }
  - { offsetInCU: 0x1B217, offset: 0x2750B, size: 0x8, addend: 0x0, symName: __ZNSt3__16vectorIjNS_9allocatorIjEEE16__destroy_vectorclB8ue170006Ev, symObjAddr: 0x235D0, symBinAddr: 0x100038CDC, symSize: 0x43C }
  - { offsetInCU: 0x1B23C, offset: 0x27530, size: 0x8, addend: 0x0, symName: __ZNSt3__16vectorIjNS_9allocatorIjEEE16__destroy_vectorC2B8ue170006ERS3_, symObjAddr: 0x23A0C, symBinAddr: 0x100039118, symSize: 0x108 }
  - { offsetInCU: 0x1B274, offset: 0x27568, size: 0x8, addend: 0x0, symName: __ZNSt3__16vectorIjNS_9allocatorIjEEE7__clearB8ue170006Ev, symObjAddr: 0x23B14, symBinAddr: 0x100039220, symSize: 0xB0 }
  - { offsetInCU: 0x1B299, offset: 0x2758D, size: 0x8, addend: 0x0, symName: __ZNKSt3__16vectorIjNS_9allocatorIjEEE17__annotate_deleteB8ue170006Ev, symObjAddr: 0x23BC4, symBinAddr: 0x1000392D0, symSize: 0x370 }
  - { offsetInCU: 0x1B2BE, offset: 0x275B2, size: 0x8, addend: 0x0, symName: __ZNSt3__116allocator_traitsINS_9allocatorIjEEE10deallocateB8ue170006ERS2_Pjm, symObjAddr: 0x23F34, symBinAddr: 0x100039640, symSize: 0x34 }
  - { offsetInCU: 0x1B300, offset: 0x275F4, size: 0x8, addend: 0x0, symName: __ZNSt3__16vectorIjNS_9allocatorIjEEE7__allocB8ue170006Ev, symObjAddr: 0x23F68, symBinAddr: 0x100039674, symSize: 0xE4 }
  - { offsetInCU: 0x1B325, offset: 0x27619, size: 0x8, addend: 0x0, symName: __ZNKSt3__16vectorIjNS_9allocatorIjEEE8capacityB8ue170006Ev, symObjAddr: 0x2404C, symBinAddr: 0x100039758, symSize: 0x144 }
  - { offsetInCU: 0x1B34A, offset: 0x2763E, size: 0x8, addend: 0x0, symName: __ZNSt3__16vectorIjNS_9allocatorIjEEE22__base_destruct_at_endB8ue170006EPj, symObjAddr: 0x24190, symBinAddr: 0x10003989C, symSize: 0x1FC }
  - { offsetInCU: 0x1B38D, offset: 0x27681, size: 0x8, addend: 0x0, symName: __ZNSt3__116allocator_traitsINS_9allocatorIjEEE7destroyB8ue170006IjvEEvRS2_PT_, symObjAddr: 0x2438C, symBinAddr: 0x100039A98, symSize: 0x2C }
  - { offsetInCU: 0x1B3CA, offset: 0x276BE, size: 0x8, addend: 0x0, symName: __ZNSt3__19allocatorIjE7destroyB8ue170006EPj, symObjAddr: 0x243CC, symBinAddr: 0x100039AD8, symSize: 0x4C }
  - { offsetInCU: 0x1B3FD, offset: 0x276F1, size: 0x8, addend: 0x0, symName: __ZNKSt3__16vectorIjNS_9allocatorIjEEE31__annotate_contiguous_containerEPKvS5_S5_S5_, symObjAddr: 0x24418, symBinAddr: 0x100039B24, symSize: 0x9C }
  - { offsetInCU: 0x1B45E, offset: 0x27752, size: 0x8, addend: 0x0, symName: __ZNKSt3__16vectorIjNS_9allocatorIjEEE4dataB8ue170006Ev, symObjAddr: 0x244B4, symBinAddr: 0x100039BC0, symSize: 0xB0 }
  - { offsetInCU: 0x1B483, offset: 0x27777, size: 0x8, addend: 0x0, symName: __ZNKSt3__16vectorIjNS_9allocatorIjEEE4sizeB8ue170006Ev, symObjAddr: 0x24564, symBinAddr: 0x100039C70, symSize: 0xF8 }
  - { offsetInCU: 0x1B4A8, offset: 0x2779C, size: 0x8, addend: 0x0, symName: __ZNSt3__19allocatorIjE10deallocateB8ue170006EPjm, symObjAddr: 0x2465C, symBinAddr: 0x100039D68, symSize: 0x78 }
  - { offsetInCU: 0x1B4E9, offset: 0x277DD, size: 0x8, addend: 0x0, symName: __ZNSt3__117__compressed_pairIPjNS_9allocatorIjEEE6secondB8ue170006Ev, symObjAddr: 0x246D4, symBinAddr: 0x100039DE0, symSize: 0x108 }
  - { offsetInCU: 0x1B50E, offset: 0x27802, size: 0x8, addend: 0x0, symName: __ZNSt3__122__compressed_pair_elemINS_9allocatorIjEELi1ELb1EE5__getB8ue170006Ev, symObjAddr: 0x247DC, symBinAddr: 0x100039EE8, symSize: 0x74 }
  - { offsetInCU: 0x1B533, offset: 0x27827, size: 0x8, addend: 0x0, symName: __ZNKSt3__16vectorIjNS_9allocatorIjEEE9__end_capB8ue170006Ev, symObjAddr: 0x24850, symBinAddr: 0x100039F5C, symSize: 0x100 }
  - { offsetInCU: 0x1B558, offset: 0x2784C, size: 0x8, addend: 0x0, symName: __ZNKSt3__117__compressed_pairIPjNS_9allocatorIjEEE5firstB8ue170006Ev, symObjAddr: 0x24950, symBinAddr: 0x10003A05C, symSize: 0x124 }
  - { offsetInCU: 0x1B57D, offset: 0x27871, size: 0x8, addend: 0x0, symName: __ZNKSt3__122__compressed_pair_elemIPjLi0ELb0EE5__getB8ue170006Ev, symObjAddr: 0x24A74, symBinAddr: 0x10003A180, symSize: 0xAC }
  - { offsetInCU: 0x1B5A2, offset: 0x27896, size: 0x8, addend: 0x0, symName: __ZNSt3__114priority_queueIjNS_6vectorIjNS_9allocatorIjEEEENS_7greaterIjEEED2Ev, symObjAddr: 0x24B20, symBinAddr: 0x10003A22C, symSize: 0x78 }
  - { offsetInCU: 0x1B5CE, offset: 0x278C2, size: 0x8, addend: 0x0, symName: __ZNSt3__15dequeINS_12basic_stringIcNS_11char_traitsIcEENS_9allocatorIcEEEENS4_IS6_EEED2B8ue170006Ev, symObjAddr: 0x24B98, symBinAddr: 0x10003A2A4, symSize: 0x2A0 }
  - { offsetInCU: 0x1B623, offset: 0x27917, size: 0x8, addend: 0x0, symName: __ZNSt3__15dequeINS_12basic_stringIcNS_11char_traitsIcEENS_9allocatorIcEEEENS4_IS6_EEE5clearEv, symObjAddr: 0x24E38, symBinAddr: 0x10003A544, symSize: 0x720 }
  - { offsetInCU: 0x1B687, offset: 0x2797B, size: 0x8, addend: 0x0, symName: __ZNKSt3__15dequeINS_12basic_stringIcNS_11char_traitsIcEENS_9allocatorIcEEEENS4_IS6_EEE17__annotate_deleteB8ue170006Ev, symObjAddr: 0x25558, symBinAddr: 0x10003AC64, symSize: 0x22C }
  - { offsetInCU: 0x1B6C9, offset: 0x279BD, size: 0x8, addend: 0x0, symName: __ZNSt3__114__split_bufferIPNS_12basic_stringIcNS_11char_traitsIcEENS_9allocatorIcEEEENS4_IS7_EEE5beginB8ue170006Ev, symObjAddr: 0x25784, symBinAddr: 0x10003AE90, symSize: 0xB0 }
  - { offsetInCU: 0x1B6EE, offset: 0x279E2, size: 0x8, addend: 0x0, symName: __ZNSt3__114__split_bufferIPNS_12basic_stringIcNS_11char_traitsIcEENS_9allocatorIcEEEENS4_IS7_EEE3endB8ue170006Ev, symObjAddr: 0x25834, symBinAddr: 0x10003AF40, symSize: 0xB0 }
  - { offsetInCU: 0x1B713, offset: 0x27A07, size: 0x8, addend: 0x0, symName: __ZNSt3__15dequeINS_12basic_stringIcNS_11char_traitsIcEENS_9allocatorIcEEEENS4_IS6_EEE7__allocB8ue170006Ev, symObjAddr: 0x25918, symBinAddr: 0x10003AFF0, symSize: 0xE4 }
  - { offsetInCU: 0x1B738, offset: 0x27A2C, size: 0x8, addend: 0x0, symName: __ZNSt3__114__split_bufferIPNS_12basic_stringIcNS_11char_traitsIcEENS_9allocatorIcEEEENS4_IS7_EEED1Ev, symObjAddr: 0x259FC, symBinAddr: 0x10003B0D4, symSize: 0x78 }
  - { offsetInCU: 0x1B763, offset: 0x27A57, size: 0x8, addend: 0x0, symName: __ZNSt3__15dequeINS_12basic_stringIcNS_11char_traitsIcEENS_9allocatorIcEEEENS4_IS6_EEE5beginB8ue170006Ev, symObjAddr: 0x25A74, symBinAddr: 0x10003B14C, symSize: 0x658 }
  - { offsetInCU: 0x1B799, offset: 0x27A8D, size: 0x8, addend: 0x0, symName: __ZNSt3__15dequeINS_12basic_stringIcNS_11char_traitsIcEENS_9allocatorIcEEEENS4_IS6_EEE3endB8ue170006Ev, symObjAddr: 0x260CC, symBinAddr: 0x10003B7A4, symSize: 0x61C }
  - { offsetInCU: 0x1B7DF, offset: 0x27AD3, size: 0x8, addend: 0x0, symName: __ZNKSt3__116__deque_iteratorINS_12basic_stringIcNS_11char_traitsIcEENS_9allocatorIcEEEEPS6_RS6_PS7_lLl170EEdeB8ue170006Ev, symObjAddr: 0x267D8, symBinAddr: 0x10003BE84, symSize: 0xF8 }
  - { offsetInCU: 0x1B804, offset: 0x27AF8, size: 0x8, addend: 0x0, symName: __ZNSt3__116__deque_iteratorINS_12basic_stringIcNS_11char_traitsIcEENS_9allocatorIcEEEEPS6_RS6_PS7_lLl170EEppB8ue170006Ev, symObjAddr: 0x268D0, symBinAddr: 0x10003BF7C, symSize: 0x46C }
  - { offsetInCU: 0x1B829, offset: 0x27B1D, size: 0x8, addend: 0x0, symName: __ZNSt3__15dequeINS_12basic_stringIcNS_11char_traitsIcEENS_9allocatorIcEEEENS4_IS6_EEE6__sizeB8ue170006Ev, symObjAddr: 0x26D3C, symBinAddr: 0x10003C3E8, symSize: 0x100 }
  - { offsetInCU: 0x1B84E, offset: 0x27B42, size: 0x8, addend: 0x0, symName: __ZNSt3__114__split_bufferIPNS_12basic_stringIcNS_11char_traitsIcEENS_9allocatorIcEEEENS4_IS7_EEE5frontB8ue170006Ev, symObjAddr: 0x26E3C, symBinAddr: 0x10003C4E8, symSize: 0xF8 }
  - { offsetInCU: 0x1B873, offset: 0x27B67, size: 0x8, addend: 0x0, symName: __ZNSt3__114__split_bufferIPNS_12basic_stringIcNS_11char_traitsIcEENS_9allocatorIcEEEENS4_IS7_EEE9pop_frontB8ue170006Ev, symObjAddr: 0x26F34, symBinAddr: 0x10003C5E0, symSize: 0x150 }
  - { offsetInCU: 0x1B898, offset: 0x27B8C, size: 0x8, addend: 0x0, symName: __ZNKSt3__114__split_bufferIPNS_12basic_stringIcNS_11char_traitsIcEENS_9allocatorIcEEEENS4_IS7_EEE5emptyB8ue170006Ev, symObjAddr: 0x27084, symBinAddr: 0x10003C730, symSize: 0xFC }
  - { offsetInCU: 0x1B8BD, offset: 0x27BB1, size: 0x8, addend: 0x0, symName: __ZNSt3__116__deque_iteratorINS_12basic_stringIcNS_11char_traitsIcEENS_9allocatorIcEEEEPS6_RS6_PS7_lLl170EEC1B8ue170006ES9_S7_, symObjAddr: 0x27180, symBinAddr: 0x10003C82C, symSize: 0x88 }
  - { offsetInCU: 0x1B904, offset: 0x27BF8, size: 0x8, addend: 0x0, symName: __ZNSt3__116__deque_iteratorINS_12basic_stringIcNS_11char_traitsIcEENS_9allocatorIcEEEEPS6_RS6_PS7_lLl170EEC2B8ue170006ES9_S7_, symObjAddr: 0x27208, symBinAddr: 0x10003C8B4, symSize: 0x110 }
  - { offsetInCU: 0x1B94B, offset: 0x27C3F, size: 0x8, addend: 0x0, symName: __ZNSt3__117__compressed_pairImNS_9allocatorINS_12basic_stringIcNS_11char_traitsIcEENS1_IcEEEEEEE5firstB8ue170006Ev, symObjAddr: 0x274D8, symBinAddr: 0x10003CAE8, symSize: 0x124 }
  - { offsetInCU: 0x1B970, offset: 0x27C64, size: 0x8, addend: 0x0, symName: __ZNSt3__114__split_bufferIPNS_12basic_stringIcNS_11char_traitsIcEENS_9allocatorIcEEEENS4_IS7_EEE19__destruct_at_beginB8ue170006EPS7_, symObjAddr: 0x275FC, symBinAddr: 0x10003CC0C, symSize: 0x74 }
  - { offsetInCU: 0x1B9A3, offset: 0x27C97, size: 0x8, addend: 0x0, symName: __ZNSt3__114__split_bufferIPNS_12basic_stringIcNS_11char_traitsIcEENS_9allocatorIcEEEENS4_IS7_EEE19__destruct_at_beginEPS7_NS_17integral_constantIbLb1EEE, symObjAddr: 0x27670, symBinAddr: 0x10003CC80, symSize: 0xC0 }
  - { offsetInCU: 0x1B9E3, offset: 0x27CD7, size: 0x8, addend: 0x0, symName: __ZNKSt3__15dequeINS_12basic_stringIcNS_11char_traitsIcEENS_9allocatorIcEEEENS4_IS6_EEE22__annotate_whole_blockB8ue170006EmNS8_22__asan_annotation_typeE, symObjAddr: 0x27730, symBinAddr: 0x10003CD40, symSize: 0x3C4 }
  - { offsetInCU: 0x1BA53, offset: 0x27D47, size: 0x8, addend: 0x0, symName: __ZNKSt3__15dequeINS_12basic_stringIcNS_11char_traitsIcEENS_9allocatorIcEEEENS4_IS6_EEE23__annotate_poison_blockB8ue170006EPKvSA_, symObjAddr: 0x27AF4, symBinAddr: 0x10003D104, symSize: 0x8C }
  - { offsetInCU: 0x1BA96, offset: 0x27D8A, size: 0x8, addend: 0x0, symName: __ZNSt3__117__compressed_pairImNS_9allocatorINS_12basic_stringIcNS_11char_traitsIcEENS1_IcEEEEEEE6secondB8ue170006Ev, symObjAddr: 0x27BFC, symBinAddr: 0x10003D190, symSize: 0x108 }
  - { offsetInCU: 0x1BABB, offset: 0x27DAF, size: 0x8, addend: 0x0, symName: __ZNSt3__114__split_bufferIPNS_12basic_stringIcNS_11char_traitsIcEENS_9allocatorIcEEEENS4_IS7_EEED2Ev, symObjAddr: 0x27D78, symBinAddr: 0x10003D298, symSize: 0x16C }
  - { offsetInCU: 0x1BAE6, offset: 0x27DDA, size: 0x8, addend: 0x0, symName: __ZNSt3__114__split_bufferIPNS_12basic_stringIcNS_11char_traitsIcEENS_9allocatorIcEEEENS4_IS7_EEE5clearB8ue170006Ev, symObjAddr: 0x27EE4, symBinAddr: 0x10003D404, symSize: 0xB4 }
  - { offsetInCU: 0x1BB0B, offset: 0x27DFF, size: 0x8, addend: 0x0, symName: __ZNSt3__116allocator_traitsINS_9allocatorIPNS_12basic_stringIcNS_11char_traitsIcEENS1_IcEEEEEEE10deallocateB8ue170006ERS8_PS7_m, symObjAddr: 0x27F98, symBinAddr: 0x10003D4B8, symSize: 0x34 }
  - { offsetInCU: 0x1BB4D, offset: 0x27E41, size: 0x8, addend: 0x0, symName: __ZNSt3__114__split_bufferIPNS_12basic_stringIcNS_11char_traitsIcEENS_9allocatorIcEEEENS4_IS7_EEE7__allocB8ue170006Ev, symObjAddr: 0x27FCC, symBinAddr: 0x10003D4EC, symSize: 0xE4 }
  - { offsetInCU: 0x1BB72, offset: 0x27E66, size: 0x8, addend: 0x0, symName: __ZNKSt3__114__split_bufferIPNS_12basic_stringIcNS_11char_traitsIcEENS_9allocatorIcEEEENS4_IS7_EEE8capacityB8ue170006Ev, symObjAddr: 0x280B0, symBinAddr: 0x10003D5D0, symSize: 0x144 }
  - { offsetInCU: 0x1BB97, offset: 0x27E8B, size: 0x8, addend: 0x0, symName: __ZNSt3__114__split_bufferIPNS_12basic_stringIcNS_11char_traitsIcEENS_9allocatorIcEEEENS4_IS7_EEE17__destruct_at_endB8ue170006EPS7_, symObjAddr: 0x281F4, symBinAddr: 0x10003D714, symSize: 0x74 }
  - { offsetInCU: 0x1BBCA, offset: 0x27EBE, size: 0x8, addend: 0x0, symName: __ZNSt3__114__split_bufferIPNS_12basic_stringIcNS_11char_traitsIcEENS_9allocatorIcEEEENS4_IS7_EEE17__destruct_at_endB8ue170006EPS7_NS_17integral_constantIbLb0EEE, symObjAddr: 0x28268, symBinAddr: 0x10003D788, symSize: 0x224 }
  - { offsetInCU: 0x1BC0F, offset: 0x27F03, size: 0x8, addend: 0x0, symName: __ZNSt3__116allocator_traitsINS_9allocatorIPNS_12basic_stringIcNS_11char_traitsIcEENS1_IcEEEEEEE7destroyB8ue170006IS7_vEEvRS8_PT_, symObjAddr: 0x2848C, symBinAddr: 0x10003D9AC, symSize: 0x2C }
  - { offsetInCU: 0x1BC4C, offset: 0x27F40, size: 0x8, addend: 0x0, symName: __ZNSt3__19allocatorIPNS_12basic_stringIcNS_11char_traitsIcEENS0_IcEEEEE7destroyB8ue170006EPS6_, symObjAddr: 0x284CC, symBinAddr: 0x10003D9EC, symSize: 0x4C }
  - { offsetInCU: 0x1BC7F, offset: 0x27F73, size: 0x8, addend: 0x0, symName: __ZNSt3__19allocatorIPNS_12basic_stringIcNS_11char_traitsIcEENS0_IcEEEEE10deallocateB8ue170006EPS6_m, symObjAddr: 0x28518, symBinAddr: 0x10003DA38, symSize: 0x78 }
  - { offsetInCU: 0x1BCC0, offset: 0x27FB4, size: 0x8, addend: 0x0, symName: __ZNSt3__117__compressed_pairIPPNS_12basic_stringIcNS_11char_traitsIcEENS_9allocatorIcEEEENS4_IS7_EEE6secondB8ue170006Ev, symObjAddr: 0x28590, symBinAddr: 0x10003DAB0, symSize: 0x108 }
  - { offsetInCU: 0x1BCE5, offset: 0x27FD9, size: 0x8, addend: 0x0, symName: __ZNSt3__122__compressed_pair_elemINS_9allocatorIPNS_12basic_stringIcNS_11char_traitsIcEENS1_IcEEEEEELi1ELb1EE5__getB8ue170006Ev, symObjAddr: 0x28698, symBinAddr: 0x10003DBB8, symSize: 0x74 }
  - { offsetInCU: 0x1BD0A, offset: 0x27FFE, size: 0x8, addend: 0x0, symName: __ZNKSt3__114__split_bufferIPNS_12basic_stringIcNS_11char_traitsIcEENS_9allocatorIcEEEENS4_IS7_EEE9__end_capB8ue170006Ev, symObjAddr: 0x2870C, symBinAddr: 0x10003DC2C, symSize: 0x100 }
  - { offsetInCU: 0x1BD2F, offset: 0x28023, size: 0x8, addend: 0x0, symName: __ZNKSt3__117__compressed_pairIPPNS_12basic_stringIcNS_11char_traitsIcEENS_9allocatorIcEEEENS4_IS7_EEE5firstB8ue170006Ev, symObjAddr: 0x2880C, symBinAddr: 0x10003DD2C, symSize: 0x124 }
  - { offsetInCU: 0x1BD54, offset: 0x28048, size: 0x8, addend: 0x0, symName: __ZNKSt3__122__compressed_pair_elemIPPNS_12basic_stringIcNS_11char_traitsIcEENS_9allocatorIcEEEELi0ELb0EE5__getB8ue170006Ev, symObjAddr: 0x28930, symBinAddr: 0x10003DE50, symSize: 0xAC }
  - { offsetInCU: 0x1BD79, offset: 0x2806D, size: 0x8, addend: 0x0, symName: __ZNSt3__114priority_queueI7ZombiesNS_6vectorIS1_NS_9allocatorIS1_EEEE10MostActiveED2Ev, symObjAddr: 0x289DC, symBinAddr: 0x10003DEFC, symSize: 0x78 }
  - { offsetInCU: 0x1BDA5, offset: 0x28099, size: 0x8, addend: 0x0, symName: __ZNSt3__114priority_queueI7ZombiesNS_6vectorIS1_NS_9allocatorIS1_EEEE11LeastActiveED2Ev, symObjAddr: 0x28A54, symBinAddr: 0x10003DF74, symSize: 0x78 }
  - { offsetInCU: 0x1BDD1, offset: 0x280C5, size: 0x8, addend: 0x0, symName: __ZNKSt3__112basic_stringIcNS_11char_traitsIcEENS_9allocatorIcEEE7compareB8ue170006ERKS5_, symObjAddr: 0x2A0A8, symBinAddr: 0x10003DFEC, symSize: 0x2A8 }
  - { offsetInCU: 0x1BE09, offset: 0x280FD, size: 0x8, addend: 0x0, symName: __ZNKSt3__112basic_stringIcNS_11char_traitsIcEENS_9allocatorIcEEE7compareINS_17basic_string_viewIcS2_EELi0EEEiRKT_, symObjAddr: 0x2A350, symBinAddr: 0x10003E294, symSize: 0x570 }
  - { offsetInCU: 0x1BE99, offset: 0x2818D, size: 0x8, addend: 0x0, symName: __ZNKSt3__112basic_stringIcNS_11char_traitsIcEENS_9allocatorIcEEEcvNS_17basic_string_viewIcS2_EEB8ue170006Ev, symObjAddr: 0x2A8C0, symBinAddr: 0x10003E804, symSize: 0x26C }
  - { offsetInCU: 0x1BEBF, offset: 0x281B3, size: 0x8, addend: 0x0, symName: __ZNKSt3__117basic_string_viewIcNS_11char_traitsIcEEE4sizeB8ue170006Ev, symObjAddr: 0x2ABC4, symBinAddr: 0x10003EA70, symSize: 0xB0 }
  - { offsetInCU: 0x1BEE4, offset: 0x281D8, size: 0x8, addend: 0x0, symName: __ZNSt3__111char_traitsIcE7compareB8ue170006EPKcS3_m, symObjAddr: 0x2AC74, symBinAddr: 0x10003EB20, symSize: 0x34 }
  - { offsetInCU: 0x1BF23, offset: 0x28217, size: 0x8, addend: 0x0, symName: __ZNKSt3__117basic_string_viewIcNS_11char_traitsIcEEE4dataB8ue170006Ev, symObjAddr: 0x2AD18, symBinAddr: 0x10003EB54, symSize: 0xAC }
  - { offsetInCU: 0x1BF48, offset: 0x2823C, size: 0x8, addend: 0x0, symName: __ZNSt3__117basic_string_viewIcNS_11char_traitsIcEEEC1B8ue170006EPKcm, symObjAddr: 0x2BEDC, symBinAddr: 0x10003EC00, symSize: 0x88 }
  - { offsetInCU: 0x1BF8F, offset: 0x28283, size: 0x8, addend: 0x0, symName: __ZNSt3__117basic_string_viewIcNS_11char_traitsIcEEEC2B8ue170006EPKcm, symObjAddr: 0x2BF64, symBinAddr: 0x10003EC88, symSize: 0x110 }
  - { offsetInCU: 0x1BFD6, offset: 0x282CA, size: 0x8, addend: 0x0, symName: __ZNSt3__112basic_stringIcNS_11char_traitsIcEENS_9allocatorIcEEEC2B8ue170006Ev, symObjAddr: 0x2C074, symBinAddr: 0x10003ED98, symSize: 0x274 }
  - { offsetInCU: 0x1C09D, offset: 0x28391, size: 0x8, addend: 0x0, symName: __ZNKSt3__113basic_istreamIcNS_11char_traitsIcEEE6sentrycvbB8ue170006Ev, symObjAddr: 0x2DA94, symBinAddr: 0x10003FEB8, symSize: 0xE8 }
  - { offsetInCU: 0x1C0C2, offset: 0x283B6, size: 0x8, addend: 0x0, symName: __ZNSt3__112basic_stringIcNS_11char_traitsIcEENS_9allocatorIcEEE5clearB8ue170006Ev, symObjAddr: 0x2DB7C, symBinAddr: 0x10003FFA0, symSize: 0x398 }
  - { offsetInCU: 0x1C0EA, offset: 0x283DE, size: 0x8, addend: 0x0, symName: __ZNSt3__115basic_streambufIcNS_11char_traitsIcEEE6sbumpcB8ue170006Ev, symObjAddr: 0x2E034, symBinAddr: 0x100040338, symSize: 0x4D8 }
  - { offsetInCU: 0x1C10F, offset: 0x28403, size: 0x8, addend: 0x0, symName: __ZNSt3__111char_traitsIcE12to_char_typeB8ue170006Ei, symObjAddr: 0x2E53C, symBinAddr: 0x100040810, symSize: 0x18 }
  - { offsetInCU: 0x1C132, offset: 0x28426, size: 0x8, addend: 0x0, symName: __ZNSt3__111char_traitsIcE2eqEcc, symObjAddr: 0x2E554, symBinAddr: 0x100040828, symSize: 0x28 }
  - { offsetInCU: 0x1C163, offset: 0x28457, size: 0x8, addend: 0x0, symName: __ZNKSt3__112basic_stringIcNS_11char_traitsIcEENS_9allocatorIcEEE8max_sizeB8ue170006Ev, symObjAddr: 0x2E57C, symBinAddr: 0x100040850, symSize: 0x1B8 }
  - { offsetInCU: 0x1C1B4, offset: 0x284A8, size: 0x8, addend: 0x0, symName: __ZNSt3__18ios_base18__setstate_nothrowB8ue170006Ej, symObjAddr: 0x2E734, symBinAddr: 0x100040A08, symSize: 0x320 }
  - { offsetInCU: 0x1C1E8, offset: 0x284DC, size: 0x8, addend: 0x0, symName: __ZNKSt3__19basic_iosIcNS_11char_traitsIcEEE10exceptionsB8ue170006Ev, symObjAddr: 0x2EA54, symBinAddr: 0x100040D28, symSize: 0x120 }
  - { offsetInCU: 0x1C20D, offset: 0x28501, size: 0x8, addend: 0x0, symName: __ZNSt3__111char_traitsIcE6assignB8ue170006ERcRKc, symObjAddr: 0x2EC9C, symBinAddr: 0x100040E48, symSize: 0xF4 }
  - { offsetInCU: 0x1C23E, offset: 0x28532, size: 0x8, addend: 0x0, symName: __ZNSt3__112basic_stringIcNS_11char_traitsIcEENS_9allocatorIcEEE15__set_long_sizeB8ue170006Em, symObjAddr: 0x2EF98, symBinAddr: 0x100040F3C, symSize: 0x220 }
  - { offsetInCU: 0x1C272, offset: 0x28566, size: 0x8, addend: 0x0, symName: __ZNSt3__112basic_stringIcNS_11char_traitsIcEENS_9allocatorIcEEE16__set_short_sizeB8ue170006Em, symObjAddr: 0x2F384, symBinAddr: 0x10004115C, symSize: 0x394 }
  - { offsetInCU: 0x1C2A6, offset: 0x2859A, size: 0x8, addend: 0x0, symName: __ZNSt3__111char_traitsIcE11to_int_typeB8ue170006Ec, symObjAddr: 0x2F864, symBinAddr: 0x1000414F0, symSize: 0x14 }
  - { offsetInCU: 0x1C2D4, offset: 0x285C8, size: 0x8, addend: 0x0, symName: __ZNSt3__116allocator_traitsINS_9allocatorIcEEE8max_sizeB8ue170006IS2_vEEmRKS2_, symObjAddr: 0x2F878, symBinAddr: 0x100041504, symSize: 0x24 }
  - { offsetInCU: 0x1C302, offset: 0x285F6, size: 0x8, addend: 0x0, symName: __ZNKSt3__112basic_stringIcNS_11char_traitsIcEENS_9allocatorIcEEE7__allocB8ue170006Ev, symObjAddr: 0x2F89C, symBinAddr: 0x100041528, symSize: 0xDC }
  - { offsetInCU: 0x1C327, offset: 0x2861B, size: 0x8, addend: 0x0, symName: __ZNSt3__114numeric_limitsImE3maxB8ue170006Ev, symObjAddr: 0x2F978, symBinAddr: 0x100041604, symSize: 0x14 }
  - { offsetInCU: 0x1C33B, offset: 0x2862F, size: 0x8, addend: 0x0, symName: __ZNKSt3__19allocatorIcE8max_sizeB8ue170006Ev, symObjAddr: 0x2F98C, symBinAddr: 0x100041618, symSize: 0x4C }
  - { offsetInCU: 0x1C360, offset: 0x28654, size: 0x8, addend: 0x0, symName: __ZNKSt3__117__compressed_pairINS_12basic_stringIcNS_11char_traitsIcEENS_9allocatorIcEEE5__repES5_E6secondB8ue170006Ev, symObjAddr: 0x2F9D8, symBinAddr: 0x100041664, symSize: 0x108 }
  - { offsetInCU: 0x1C385, offset: 0x28679, size: 0x8, addend: 0x0, symName: __ZNKSt3__122__compressed_pair_elemINS_9allocatorIcEELi1ELb1EE5__getB8ue170006Ev, symObjAddr: 0x2FAE0, symBinAddr: 0x10004176C, symSize: 0x74 }
  - { offsetInCU: 0x1C3AA, offset: 0x2869E, size: 0x8, addend: 0x0, symName: __ZNSt3__123__libcpp_numeric_limitsImLb1EE3maxB8ue170006Ev, symObjAddr: 0x2FB54, symBinAddr: 0x1000417E0, symSize: 0x8 }
  - { offsetInCU: 0x1C3BE, offset: 0x286B2, size: 0x8, addend: 0x0, symName: __ZNKSt3__18ios_base10exceptionsB8ue170006Ev, symObjAddr: 0x2FB5C, symBinAddr: 0x1000417E8, symSize: 0x160 }
  - { offsetInCU: 0x1C3EA, offset: 0x286DE, size: 0x8, addend: 0x0, symName: __ZNSt3__115basic_streambufIcNS_11char_traitsIcEEE5sgetcB8ue170006Ev, symObjAddr: 0x302FC, symBinAddr: 0x100041948, symSize: 0x418 }
  - { offsetInCU: 0x1C40F, offset: 0x28703, size: 0x8, addend: 0x0, symName: __ZNKSt3__15ctypeIcE2isB8ue170006Ejc, symObjAddr: 0x30714, symBinAddr: 0x100041D60, symSize: 0x314 }
  - { offsetInCU: 0x1C451, offset: 0x28745, size: 0x8, addend: 0x0, symName: __Z7isasciii, symObjAddr: 0x30C28, symBinAddr: 0x100042074, symSize: 0x24 }
  - { offsetInCU: 0x1C47E, offset: 0x28772, size: 0x8, addend: 0x0, symName: __ZNKSt3__15dequeI7ZombiesNS_9allocatorIS1_EEE12__back_spareB8ue170006Ev, symObjAddr: 0x30C4C, symBinAddr: 0x100042098, symSize: 0xD4 }
  - { offsetInCU: 0x1C4A3, offset: 0x28797, size: 0x8, addend: 0x0, symName: __ZNSt3__15dequeI7ZombiesNS_9allocatorIS1_EEE19__add_back_capacityEv, symObjAddr: 0x30D20, symBinAddr: 0x10004216C, symSize: 0x13D4 }
  - { offsetInCU: 0x1C562, offset: 0x28856, size: 0x8, addend: 0x0, symName: __ZNKSt3__15dequeI7ZombiesNS_9allocatorIS1_EEE24__annotate_increase_backB8ue170006Em, symObjAddr: 0x320F4, symBinAddr: 0x100043540, symSize: 0x134 }
  - { offsetInCU: 0x1C596, offset: 0x2888A, size: 0x8, addend: 0x0, symName: __ZNSt3__116allocator_traitsINS_9allocatorI7ZombiesEEE9constructB8ue170006IS2_JRKS2_EvEEvRS3_PT_DpOT0_, symObjAddr: 0x32228, symBinAddr: 0x100043674, symSize: 0x8C }
  - { offsetInCU: 0x1C5ED, offset: 0x288E1, size: 0x8, addend: 0x0, symName: __ZNKSt3__15dequeI7ZombiesNS_9allocatorIS1_EEE10__capacityB8ue170006Ev, symObjAddr: 0x322B4, symBinAddr: 0x100043700, symSize: 0x130 }
  - { offsetInCU: 0x1C612, offset: 0x28906, size: 0x8, addend: 0x0, symName: __ZNKSt3__15dequeI7ZombiesNS_9allocatorIS1_EEE13__front_spareB8ue170006Ev, symObjAddr: 0x323E4, symBinAddr: 0x100043830, symSize: 0xB0 }
  - { offsetInCU: 0x1C637, offset: 0x2892B, size: 0x8, addend: 0x0, symName: __ZNSt3__114__split_bufferIP7ZombiesNS_9allocatorIS2_EEE9push_backB8ue170006ERKS2_, symObjAddr: 0x32494, symBinAddr: 0x1000438E0, symSize: 0x1138 }
  - { offsetInCU: 0x1C6B5, offset: 0x289A9, size: 0x8, addend: 0x0, symName: __ZNKSt3__114__split_bufferIP7ZombiesNS_9allocatorIS2_EEE12__back_spareB8ue170006Ev, symObjAddr: 0x335CC, symBinAddr: 0x100044A18, symSize: 0x148 }
  - { offsetInCU: 0x1C6DA, offset: 0x289CE, size: 0x8, addend: 0x0, symName: __ZNSt3__114__split_bufferIP7ZombiesNS_9allocatorIS2_EEE9push_backEOS2_, symObjAddr: 0x33714, symBinAddr: 0x100044B60, symSize: 0x1138 }
  - { offsetInCU: 0x1C758, offset: 0x28A4C, size: 0x8, addend: 0x0, symName: __ZNSt3__116allocator_traitsINS_9allocatorI7ZombiesEEE8allocateB8ue170006ERS3_m, symObjAddr: 0x3484C, symBinAddr: 0x100045C98, symSize: 0x2C }
  - { offsetInCU: 0x1C78B, offset: 0x28A7F, size: 0x8, addend: 0x0, symName: __ZNSt3__114__split_bufferIP7ZombiesNS_9allocatorIS2_EEE10push_frontEOS2_, symObjAddr: 0x34878, symBinAddr: 0x100045CC4, symSize: 0x1214 }
  - { offsetInCU: 0x1C809, offset: 0x28AFD, size: 0x8, addend: 0x0, symName: __ZNSt3__114__split_bufferIP7ZombiesRNS_9allocatorIS2_EEEC1EmmS5_, symObjAddr: 0x35B90, symBinAddr: 0x100046FDC, symSize: 0x90 }
  - { offsetInCU: 0x1C863, offset: 0x28B57, size: 0x8, addend: 0x0, symName: __ZNSt3__122__allocator_destructorINS_9allocatorI7ZombiesEEEC1B8ue170006ERS3_m, symObjAddr: 0x35C20, symBinAddr: 0x10004706C, symSize: 0x88 }
  - { offsetInCU: 0x1C911, offset: 0x28C05, size: 0x8, addend: 0x0, symName: __ZNSt3__110unique_ptrIP7ZombiesNS_22__allocator_destructorINS_9allocatorIS1_EEEEEC1B8ue170006ILb1EvEES2_NS_16__dependent_typeINS_27__unique_ptr_deleter_sfinaeIS6_EEXT_EE20__good_rval_ref_typeE, symObjAddr: 0x35CA8, symBinAddr: 0x1000470F4, symSize: 0x88 }
  - { offsetInCU: 0x1C961, offset: 0x28C55, size: 0x8, addend: 0x0, symName: __ZNSt3__114__split_bufferIP7ZombiesRNS_9allocatorIS2_EEE9push_backEOS2_, symObjAddr: 0x35D30, symBinAddr: 0x10004717C, symSize: 0x1138 }
  - { offsetInCU: 0x1C9DF, offset: 0x28CD3, size: 0x8, addend: 0x0, symName: __ZNKSt3__110unique_ptrIP7ZombiesNS_22__allocator_destructorINS_9allocatorIS1_EEEEE3getB8ue170006Ev, symObjAddr: 0x36E68, symBinAddr: 0x1000482B4, symSize: 0x13C }
  - { offsetInCU: 0x1CA04, offset: 0x28CF8, size: 0x8, addend: 0x0, symName: __ZNSt3__110unique_ptrIP7ZombiesNS_22__allocator_destructorINS_9allocatorIS1_EEEEE7releaseB8ue170006Ev, symObjAddr: 0x36FA4, symBinAddr: 0x1000483F0, symSize: 0x20C }
  - { offsetInCU: 0x1CA38, offset: 0x28D2C, size: 0x8, addend: 0x0, symName: __ZNSt3__114__split_bufferIP7ZombiesRNS_9allocatorIS2_EEE10push_frontERKS2_, symObjAddr: 0x371B0, symBinAddr: 0x1000485FC, symSize: 0x1214 }
  - { offsetInCU: 0x1CAB6, offset: 0x28DAA, size: 0x8, addend: 0x0, symName: __ZNSt3__114__split_bufferIP7ZombiesNS_9allocatorIS2_EEE9__end_capB8ue170006Ev, symObjAddr: 0x38584, symBinAddr: 0x1000499D0, symSize: 0x100 }
  - { offsetInCU: 0x1CADB, offset: 0x28DCF, size: 0x8, addend: 0x0, symName: __ZNSt3__114__split_bufferIP7ZombiesRNS_9allocatorIS2_EEE9__end_capB8ue170006Ev, symObjAddr: 0x38684, symBinAddr: 0x100049AD0, symSize: 0x100 }
  - { offsetInCU: 0x1CB00, offset: 0x28DF4, size: 0x8, addend: 0x0, symName: __ZNSt3__110unique_ptrIP7ZombiesNS_22__allocator_destructorINS_9allocatorIS1_EEEEED1B8ue170006Ev, symObjAddr: 0x38784, symBinAddr: 0x100049BD0, symSize: 0x78 }
  - { offsetInCU: 0x1CB29, offset: 0x28E1D, size: 0x8, addend: 0x0, symName: __ZNSt3__114__split_bufferIP7ZombiesRNS_9allocatorIS2_EEED1Ev, symObjAddr: 0x387FC, symBinAddr: 0x100049C48, symSize: 0x78 }
  - { offsetInCU: 0x1CB54, offset: 0x28E48, size: 0x8, addend: 0x0, symName: __ZNSt3__114__split_bufferIP7ZombiesRNS_9allocatorIS2_EEE18__construct_at_endINS_13move_iteratorIPS2_EEEENS_9enable_ifIXsr31__has_forward_iterator_categoryIT_EE5valueEvE4typeESC_SC_, symObjAddr: 0x38B28, symBinAddr: 0x100049F74, symSize: 0x414 }
  - { offsetInCU: 0x1CBA9, offset: 0x28E9D, size: 0x8, addend: 0x0, symName: __ZNSt3__113move_iteratorIPP7ZombiesEC1B8ue170006ES3_, symObjAddr: 0x38F3C, symBinAddr: 0x10004A388, symSize: 0x80 }
  - { offsetInCU: 0x1CBE0, offset: 0x28ED4, size: 0x8, addend: 0x0, symName: __ZNSt3__116allocator_traitsINS_9allocatorIP7ZombiesEEE9constructB8ue170006IS3_JRKS3_EvEEvRS4_PT_DpOT0_, symObjAddr: 0x38FBC, symBinAddr: 0x10004A408, symSize: 0x8C }
  - { offsetInCU: 0x1CC5A, offset: 0x28F4E, size: 0x8, addend: 0x0, symName: __ZNKSt3__114__move_trivialclB8ue170006IP7ZombiesS3_Li0EEENS_4pairIPT_PT0_EES6_S6_S8_, symObjAddr: 0x39E24, symBinAddr: 0x10004B270, symSize: 0x25C }
  - { offsetInCU: 0x1CCCA, offset: 0x28FBE, size: 0x8, addend: 0x0, symName: __ZNSt3__14pairIPP7ZombiesS3_EC1B8ue170006IRS3_S3_LPv0EEEOT_OT0_, symObjAddr: 0x3AB3C, symBinAddr: 0x10004BF88, symSize: 0x88 }
  - { offsetInCU: 0x1CD27, offset: 0x2901B, size: 0x8, addend: 0x0, symName: __ZNSt3__14pairIPP7ZombiesS3_EC2B8ue170006IRS3_S3_LPv0EEEOT_OT0_, symObjAddr: 0x3ABC4, symBinAddr: 0x10004C010, symSize: 0x210 }
  - { offsetInCU: 0x1CD84, offset: 0x29078, size: 0x8, addend: 0x0, symName: __ZNSt3__118__unwrap_iter_implIPP7ZombiesLb1EE8__unwrapB8ue170006ES3_, symObjAddr: 0x3ADD4, symBinAddr: 0x10004C220, symSize: 0x24 }
  - { offsetInCU: 0x1CDA7, offset: 0x2909B, size: 0x8, addend: 0x0, symName: __ZNSt3__14pairIPP7ZombiesS3_EC1B8ue170006IS3_S3_LPv0EEEOT_OT0_, symObjAddr: 0x3ADF8, symBinAddr: 0x10004C244, symSize: 0x88 }
  - { offsetInCU: 0x1CE04, offset: 0x290F8, size: 0x8, addend: 0x0, symName: __ZNSt3__14pairIPP7ZombiesS3_EC2B8ue170006IS3_S3_LPv0EEEOT_OT0_, symObjAddr: 0x3AE80, symBinAddr: 0x10004C2CC, symSize: 0x210 }
  - { offsetInCU: 0x1CE61, offset: 0x29155, size: 0x8, addend: 0x0, symName: __ZNSt3__118__unwrap_iter_implIPP7ZombiesLb1EE8__rewrapB8ue170006ES3_S3_, symObjAddr: 0x3B090, symBinAddr: 0x10004C4DC, symSize: 0x13C }
  - { offsetInCU: 0x1CE92, offset: 0x29186, size: 0x8, addend: 0x0, symName: __ZNSt3__114__split_bufferIP7ZombiesRNS_9allocatorIS2_EEE28__construct_at_end_with_sizeINS_13move_iteratorIPS2_EEEEvT_m, symObjAddr: 0x3B1CC, symBinAddr: 0x10004C618, symSize: 0x610 }
  - { offsetInCU: 0x1CF01, offset: 0x291F5, size: 0x8, addend: 0x0, symName: __ZNSt3__114__split_bufferIP7ZombiesRNS_9allocatorIS2_EEE21_ConstructTransactionC1B8ue170006EPPS2_m, symObjAddr: 0x3BB2C, symBinAddr: 0x10004CF78, symSize: 0x88 }
  - { offsetInCU: 0x1CF46, offset: 0x2923A, size: 0x8, addend: 0x0, symName: __ZNSt3__116allocator_traitsINS_9allocatorIP7ZombiesEEE9constructB8ue170006IS3_JS3_EvEEvRS4_PT_DpOT0_, symObjAddr: 0x3BBB4, symBinAddr: 0x10004D000, symSize: 0x8C }
  - { offsetInCU: 0x1CF9D, offset: 0x29291, size: 0x8, addend: 0x0, symName: __ZNSt3__114__split_bufferIP7ZombiesRNS_9allocatorIS2_EEE7__allocB8ue170006Ev, symObjAddr: 0x3BC40, symBinAddr: 0x10004D08C, symSize: 0xE4 }
  - { offsetInCU: 0x1CFC2, offset: 0x292B6, size: 0x8, addend: 0x0, symName: __ZNKSt3__113move_iteratorIPP7ZombiesEdeB8ue170006Ev, symObjAddr: 0x3BD24, symBinAddr: 0x10004D170, symSize: 0xF4 }
  - { offsetInCU: 0x1CFE7, offset: 0x292DB, size: 0x8, addend: 0x0, symName: __ZNSt3__113move_iteratorIPP7ZombiesEppB8ue170006Ev, symObjAddr: 0x3BE18, symBinAddr: 0x10004D264, symSize: 0x1A8 }
  - { offsetInCU: 0x1D00C, offset: 0x29300, size: 0x8, addend: 0x0, symName: __ZNSt3__114__split_bufferIP7ZombiesRNS_9allocatorIS2_EEE21_ConstructTransactionD1B8ue170006Ev, symObjAddr: 0x3BFC0, symBinAddr: 0x10004D40C, symSize: 0x78 }
  - { offsetInCU: 0x1D035, offset: 0x29329, size: 0x8, addend: 0x0, symName: __ZNSt3__114__split_bufferIP7ZombiesRNS_9allocatorIS2_EEE21_ConstructTransactionC2B8ue170006EPPS2_m, symObjAddr: 0x3C038, symBinAddr: 0x10004D484, symSize: 0x324 }
  - { offsetInCU: 0x1D07A, offset: 0x2936E, size: 0x8, addend: 0x0, symName: __ZNSt3__19allocatorIP7ZombiesE9constructB8ue170006IS2_JS2_EEEvPT_DpOT0_, symObjAddr: 0x3C35C, symBinAddr: 0x10004D7A8, symSize: 0x168 }
  - { offsetInCU: 0x1D0CF, offset: 0x293C3, size: 0x8, addend: 0x0, symName: __ZNSt3__117__compressed_pairIPP7ZombiesRNS_9allocatorIS2_EEE6secondB8ue170006Ev, symObjAddr: 0x3C4C4, symBinAddr: 0x10004D910, symSize: 0x110 }
  - { offsetInCU: 0x1D0F4, offset: 0x293E8, size: 0x8, addend: 0x0, symName: __ZNSt3__122__compressed_pair_elemIRNS_9allocatorIP7ZombiesEELi1ELb0EE5__getB8ue170006Ev, symObjAddr: 0x3C5D4, symBinAddr: 0x10004DA20, symSize: 0xD8 }
  - { offsetInCU: 0x1D119, offset: 0x2940D, size: 0x8, addend: 0x0, symName: __ZNSt3__114__split_bufferIP7ZombiesRNS_9allocatorIS2_EEE21_ConstructTransactionD2B8ue170006Ev, symObjAddr: 0x3C6AC, symBinAddr: 0x10004DAF8, symSize: 0x174 }
  - { offsetInCU: 0x1D142, offset: 0x29436, size: 0x8, addend: 0x0, symName: __ZNKSt3__113move_iteratorIPP7ZombiesE4baseB8ue170006Ev, symObjAddr: 0x3CB30, symBinAddr: 0x10004DF7C, symSize: 0xAC }
  - { offsetInCU: 0x1D167, offset: 0x2945B, size: 0x8, addend: 0x0, symName: __ZNSt3__113move_iteratorIPP7ZombiesEC2B8ue170006ES3_, symObjAddr: 0x3CBDC, symBinAddr: 0x10004E028, symSize: 0xC8 }
  - { offsetInCU: 0x1D19E, offset: 0x29492, size: 0x8, addend: 0x0, symName: __ZNSt3__19allocatorIP7ZombiesE9constructB8ue170006IS2_JRKS2_EEEvPT_DpOT0_, symObjAddr: 0x3CCA4, symBinAddr: 0x10004E0F0, symSize: 0x168 }
  - { offsetInCU: 0x1D1F3, offset: 0x294E7, size: 0x8, addend: 0x0, symName: __ZNSt3__19allocatorI7ZombiesE8allocateB8ue170006Em, symObjAddr: 0x3CE0C, symBinAddr: 0x10004E258, symSize: 0xD0 }
  - { offsetInCU: 0x1D230, offset: 0x29524, size: 0x8, addend: 0x0, symName: __ZNSt3__116allocator_traitsINS_9allocatorI7ZombiesEEE8max_sizeB8ue170006IS3_vEEmRKS3_, symObjAddr: 0x3CEDC, symBinAddr: 0x10004E328, symSize: 0x24 }
  - { offsetInCU: 0x1D25E, offset: 0x29552, size: 0x8, addend: 0x0, symName: __ZNKSt3__19allocatorI7ZombiesE8max_sizeB8ue170006Ev, symObjAddr: 0x3CFDC, symBinAddr: 0x10004E34C, symSize: 0x50 }
  - { offsetInCU: 0x1D28D, offset: 0x29581, size: 0x8, addend: 0x0, symName: __ZNKSt3__123__move_backward_trivialclB8ue170006IP7ZombiesS3_Li0EEENS_4pairIPT_PT0_EES6_S6_S8_, symObjAddr: 0x3DDFC, symBinAddr: 0x10004F0DC, symSize: 0x25C }
  - { offsetInCU: 0x1D2F8, offset: 0x295EC, size: 0x8, addend: 0x0, symName: __ZNSt3__14pairIPP7ZombiesS3_EC1B8ue170006IRS3_S6_LPv0EEEOT_OT0_, symObjAddr: 0x3E7D8, symBinAddr: 0x10004FAB8, symSize: 0x88 }
  - { offsetInCU: 0x1D355, offset: 0x29649, size: 0x8, addend: 0x0, symName: __ZNSt3__14pairIPP7ZombiesS3_EC2B8ue170006IRS3_S6_LPv0EEEOT_OT0_, symObjAddr: 0x3E860, symBinAddr: 0x10004FB40, symSize: 0x210 }
  - { offsetInCU: 0x1D3B2, offset: 0x296A6, size: 0x8, addend: 0x0, symName: __ZNSt3__114__split_bufferIP7ZombiesRNS_9allocatorIS2_EEEC2EmmS5_, symObjAddr: 0x3ED30, symBinAddr: 0x100050010, symSize: 0x7D8 }
  - { offsetInCU: 0x1D42C, offset: 0x29720, size: 0x8, addend: 0x0, symName: __ZNSt3__117__compressed_pairIPP7ZombiesRNS_9allocatorIS2_EEEC1B8ue170006IDnS6_EEOT_OT0_, symObjAddr: 0x3F508, symBinAddr: 0x1000507E8, symSize: 0x88 }
  - { offsetInCU: 0x1D483, offset: 0x29777, size: 0x8, addend: 0x0, symName: __ZNSt3__117__compressed_pairIPP7ZombiesRNS_9allocatorIS2_EEEC2B8ue170006IDnS6_EEOT_OT0_, symObjAddr: 0x3F81C, symBinAddr: 0x100050AFC, symSize: 0x198 }
  - { offsetInCU: 0x1D4DA, offset: 0x297CE, size: 0x8, addend: 0x0, symName: __ZNSt3__122__compressed_pair_elemIRNS_9allocatorIP7ZombiesEELi1ELb0EEC2B8ue170006IS5_vEEOT_, symObjAddr: 0x3F9B4, symBinAddr: 0x100050C94, symSize: 0xEC }
  - { offsetInCU: 0x1D51B, offset: 0x2980F, size: 0x8, addend: 0x0, symName: __ZNSt3__19allocatorIP7ZombiesE8allocateB8ue170006Em, symObjAddr: 0x3FAA0, symBinAddr: 0x100050D80, symSize: 0xCC }
  - { offsetInCU: 0x1D558, offset: 0x2984C, size: 0x8, addend: 0x0, symName: __ZNSt3__116allocator_traitsINS_9allocatorIP7ZombiesEEE8max_sizeB8ue170006IS4_vEEmRKS4_, symObjAddr: 0x3FB6C, symBinAddr: 0x100050E4C, symSize: 0x24 }
  - { offsetInCU: 0x1D586, offset: 0x2987A, size: 0x8, addend: 0x0, symName: __ZNKSt3__19allocatorIP7ZombiesE8max_sizeB8ue170006Ev, symObjAddr: 0x3FB90, symBinAddr: 0x100050E70, symSize: 0x4C }
  - { offsetInCU: 0x1D5AB, offset: 0x2989F, size: 0x8, addend: 0x0, symName: __ZNSt3__122__allocator_destructorINS_9allocatorI7ZombiesEEEC2B8ue170006ERS3_m, symObjAddr: 0x3FBDC, symBinAddr: 0x100050EBC, symSize: 0x134 }
  - { offsetInCU: 0x1D5F0, offset: 0x298E4, size: 0x8, addend: 0x0, symName: __ZNSt3__110unique_ptrIP7ZombiesNS_22__allocator_destructorINS_9allocatorIS1_EEEEEC2B8ue170006ILb1EvEES2_NS_16__dependent_typeINS_27__unique_ptr_deleter_sfinaeIS6_EEXT_EE20__good_rval_ref_typeE, symObjAddr: 0x3FD10, symBinAddr: 0x100050FF0, symSize: 0x2BC }
  - { offsetInCU: 0x1D646, offset: 0x2993A, size: 0x8, addend: 0x0, symName: __ZNSt3__117__compressed_pairIP7ZombiesNS_22__allocator_destructorINS_9allocatorIS1_EEEEEC1B8ue170006IRS2_S6_EEOT_OT0_, symObjAddr: 0x3FFCC, symBinAddr: 0x1000512AC, symSize: 0x88 }
  - { offsetInCU: 0x1D69D, offset: 0x29991, size: 0x8, addend: 0x0, symName: __ZNSt3__117__compressed_pairIP7ZombiesNS_22__allocator_destructorINS_9allocatorIS1_EEEEEC2B8ue170006IRS2_S6_EEOT_OT0_, symObjAddr: 0x40054, symBinAddr: 0x100051334, symSize: 0x1B4 }
  - { offsetInCU: 0x1D6F4, offset: 0x299E8, size: 0x8, addend: 0x0, symName: __ZNSt3__122__compressed_pair_elemIP7ZombiesLi0ELb0EEC2B8ue170006IRS2_vEEOT_, symObjAddr: 0x40208, symBinAddr: 0x1000514E8, symSize: 0x144 }
  - { offsetInCU: 0x1D735, offset: 0x29A29, size: 0x8, addend: 0x0, symName: __ZNSt3__122__compressed_pair_elemINS_22__allocator_destructorINS_9allocatorI7ZombiesEEEELi1ELb0EEC2B8ue170006IS5_vEEOT_, symObjAddr: 0x4034C, symBinAddr: 0x10005162C, symSize: 0x84 }
  - { offsetInCU: 0x1D776, offset: 0x29A6A, size: 0x8, addend: 0x0, symName: __ZNKSt3__117__compressed_pairIP7ZombiesNS_22__allocator_destructorINS_9allocatorIS1_EEEEE5firstB8ue170006Ev, symObjAddr: 0x403D0, symBinAddr: 0x1000516B0, symSize: 0x124 }
  - { offsetInCU: 0x1D79B, offset: 0x29A8F, size: 0x8, addend: 0x0, symName: __ZNSt3__117__compressed_pairIP7ZombiesNS_22__allocator_destructorINS_9allocatorIS1_EEEEE5firstB8ue170006Ev, symObjAddr: 0x404F4, symBinAddr: 0x1000517D4, symSize: 0x124 }
  - { offsetInCU: 0x1D7C0, offset: 0x29AB4, size: 0x8, addend: 0x0, symName: __ZNSt3__122__compressed_pair_elemIP7ZombiesLi0ELb0EE5__getB8ue170006Ev, symObjAddr: 0x40618, symBinAddr: 0x1000518F8, symSize: 0xAC }
  - { offsetInCU: 0x1D7E5, offset: 0x29AD9, size: 0x8, addend: 0x0, symName: __ZNSt3__117__compressed_pairIPP7ZombiesNS_9allocatorIS2_EEE5firstB8ue170006Ev, symObjAddr: 0x406C4, symBinAddr: 0x1000519A4, symSize: 0x124 }
  - { offsetInCU: 0x1D80A, offset: 0x29AFE, size: 0x8, addend: 0x0, symName: __ZNSt3__122__compressed_pair_elemIPP7ZombiesLi0ELb0EE5__getB8ue170006Ev, symObjAddr: 0x407E8, symBinAddr: 0x100051AC8, symSize: 0xAC }
  - { offsetInCU: 0x1D82F, offset: 0x29B23, size: 0x8, addend: 0x0, symName: __ZNSt3__117__compressed_pairIPP7ZombiesRNS_9allocatorIS2_EEE5firstB8ue170006Ev, symObjAddr: 0x40894, symBinAddr: 0x100051B74, symSize: 0x124 }
  - { offsetInCU: 0x1D854, offset: 0x29B48, size: 0x8, addend: 0x0, symName: __ZNSt3__110unique_ptrIP7ZombiesNS_22__allocator_destructorINS_9allocatorIS1_EEEEED2B8ue170006Ev, symObjAddr: 0x409B8, symBinAddr: 0x100051C98, symSize: 0x7C }
  - { offsetInCU: 0x1D87D, offset: 0x29B71, size: 0x8, addend: 0x0, symName: __ZNSt3__110unique_ptrIP7ZombiesNS_22__allocator_destructorINS_9allocatorIS1_EEEEE5resetB8ue170006ES2_, symObjAddr: 0x40A34, symBinAddr: 0x100051D14, symSize: 0x2CC }
  - { offsetInCU: 0x1D8C0, offset: 0x29BB4, size: 0x8, addend: 0x0, symName: __ZNSt3__117__compressed_pairIP7ZombiesNS_22__allocator_destructorINS_9allocatorIS1_EEEEE6secondB8ue170006Ev, symObjAddr: 0x40D00, symBinAddr: 0x100051FE0, symSize: 0x12C }
  - { offsetInCU: 0x1D8E5, offset: 0x29BD9, size: 0x8, addend: 0x0, symName: __ZNSt3__122__allocator_destructorINS_9allocatorI7ZombiesEEEclB8ue170006EPS2_, symObjAddr: 0x40E2C, symBinAddr: 0x10005210C, symSize: 0x128 }
  - { offsetInCU: 0x1D918, offset: 0x29C0C, size: 0x8, addend: 0x0, symName: __ZNSt3__122__compressed_pair_elemINS_22__allocator_destructorINS_9allocatorI7ZombiesEEEELi1ELb0EE5__getB8ue170006Ev, symObjAddr: 0x40F54, symBinAddr: 0x100052234, symSize: 0xAC }
  - { offsetInCU: 0x1D93D, offset: 0x29C31, size: 0x8, addend: 0x0, symName: __ZNSt3__114__split_bufferIP7ZombiesRNS_9allocatorIS2_EEED2Ev, symObjAddr: 0x41000, symBinAddr: 0x1000522E0, symSize: 0x16C }
  - { offsetInCU: 0x1D968, offset: 0x29C5C, size: 0x8, addend: 0x0, symName: __ZNSt3__114__split_bufferIP7ZombiesRNS_9allocatorIS2_EEE5clearB8ue170006Ev, symObjAddr: 0x4116C, symBinAddr: 0x10005244C, symSize: 0xB4 }
  - { offsetInCU: 0x1D98D, offset: 0x29C81, size: 0x8, addend: 0x0, symName: __ZNKSt3__114__split_bufferIP7ZombiesRNS_9allocatorIS2_EEE8capacityB8ue170006Ev, symObjAddr: 0x41220, symBinAddr: 0x100052500, symSize: 0x144 }
  - { offsetInCU: 0x1D9B2, offset: 0x29CA6, size: 0x8, addend: 0x0, symName: __ZNSt3__114__split_bufferIP7ZombiesRNS_9allocatorIS2_EEE17__destruct_at_endB8ue170006EPS2_, symObjAddr: 0x41364, symBinAddr: 0x100052644, symSize: 0x74 }
  - { offsetInCU: 0x1D9E5, offset: 0x29CD9, size: 0x8, addend: 0x0, symName: __ZNSt3__114__split_bufferIP7ZombiesRNS_9allocatorIS2_EEE17__destruct_at_endB8ue170006EPS2_NS_17integral_constantIbLb0EEE, symObjAddr: 0x413D8, symBinAddr: 0x1000526B8, symSize: 0x224 }
  - { offsetInCU: 0x1DA25, offset: 0x29D19, size: 0x8, addend: 0x0, symName: __ZNKSt3__114__split_bufferIP7ZombiesRNS_9allocatorIS2_EEE9__end_capB8ue170006Ev, symObjAddr: 0x415FC, symBinAddr: 0x1000528DC, symSize: 0x100 }
  - { offsetInCU: 0x1DA4A, offset: 0x29D3E, size: 0x8, addend: 0x0, symName: __ZNKSt3__117__compressed_pairIPP7ZombiesRNS_9allocatorIS2_EEE5firstB8ue170006Ev, symObjAddr: 0x416FC, symBinAddr: 0x1000529DC, symSize: 0x124 }
  - { offsetInCU: 0x1DA6F, offset: 0x29D63, size: 0x8, addend: 0x0, symName: __ZNSt3__19allocatorI7ZombiesE9constructB8ue170006IS1_JRKS1_EEEvPT_DpOT0_, symObjAddr: 0x41820, symBinAddr: 0x100052B00, symSize: 0xEC }
  - { offsetInCU: 0x1DAC4, offset: 0x29DB8, size: 0x8, addend: 0x0, symName: __ZN7ZombiesC1ERKS_, symObjAddr: 0x4190C, symBinAddr: 0x100052BEC, symSize: 0x80 }
  - { offsetInCU: 0x1DAF8, offset: 0x29DEC, size: 0x8, addend: 0x0, symName: __ZN7ZombiesC2ERKS_, symObjAddr: 0x4198C, symBinAddr: 0x100052C6C, symSize: 0xE0 }
  - { offsetInCU: 0x1DB2C, offset: 0x29E20, size: 0x8, addend: 0x0, symName: __ZNSt3__16vectorIP7ZombiesNS_9allocatorIS2_EEE9push_backB8ue170006ERKS2_, symObjAddr: 0x41A6C, symBinAddr: 0x100052D4C, symSize: 0x1FC }
  - { offsetInCU: 0x1DB62, offset: 0x29E56, size: 0x8, addend: 0x0, symName: __ZNSt3__16vectorIP7ZombiesNS_9allocatorIS2_EEE5beginB8ue170006Ev, symObjAddr: 0x41FD4, symBinAddr: 0x1000532B4, symSize: 0x2B0 }
  - { offsetInCU: 0x1DB8A, offset: 0x29E7E, size: 0x8, addend: 0x0, symName: __ZNSt3__16vectorIP7ZombiesNS_9allocatorIS2_EEE3endB8ue170006Ev, symObjAddr: 0x42284, symBinAddr: 0x100053564, symSize: 0x2B4 }
  - { offsetInCU: 0x1DBB2, offset: 0x29EA6, size: 0x8, addend: 0x0, symName: __ZNSt3__16vectorIP7ZombiesNS_9allocatorIS2_EEE9__end_capB8ue170006Ev, symObjAddr: 0x42538, symBinAddr: 0x100053818, symSize: 0x100 }
  - { offsetInCU: 0x1DBD7, offset: 0x29ECB, size: 0x8, addend: 0x0, symName: __ZNSt3__16vectorIP7ZombiesNS_9allocatorIS2_EEE22__construct_one_at_endB8ue170006IJRKS2_EEEvDpOT_, symObjAddr: 0x42638, symBinAddr: 0x100053918, symSize: 0x550 }
  - { offsetInCU: 0x1DC2B, offset: 0x29F1F, size: 0x8, addend: 0x0, symName: __ZNSt3__16vectorIP7ZombiesNS_9allocatorIS2_EEE21__push_back_slow_pathIRKS2_EEvOT_, symObjAddr: 0x42B88, symBinAddr: 0x100053E68, symSize: 0x5B0 }
  - { offsetInCU: 0x1DCA8, offset: 0x29F9C, size: 0x8, addend: 0x0, symName: __ZNSt3__16vectorIP7ZombiesNS_9allocatorIS2_EEE21_ConstructTransactionC1B8ue170006ERS5_m, symObjAddr: 0x43138, symBinAddr: 0x100054418, symSize: 0x88 }
  - { offsetInCU: 0x1DCEF, offset: 0x29FE3, size: 0x8, addend: 0x0, symName: __ZNSt3__16vectorIP7ZombiesNS_9allocatorIS2_EEE21_ConstructTransactionD1B8ue170006Ev, symObjAddr: 0x431C0, symBinAddr: 0x1000544A0, symSize: 0x78 }
  - { offsetInCU: 0x1DD18, offset: 0x2A00C, size: 0x8, addend: 0x0, symName: __ZNSt3__16vectorIP7ZombiesNS_9allocatorIS2_EEE21_ConstructTransactionC2B8ue170006ERS5_m, symObjAddr: 0x43238, symBinAddr: 0x100054518, symSize: 0x3D8 }
  - { offsetInCU: 0x1DD5F, offset: 0x2A053, size: 0x8, addend: 0x0, symName: __ZNKSt3__16vectorIP7ZombiesNS_9allocatorIS2_EEE19__annotate_increaseB8ue170006Em, symObjAddr: 0x43610, symBinAddr: 0x1000548F0, symSize: 0x44C }
  - { offsetInCU: 0x1DD93, offset: 0x2A087, size: 0x8, addend: 0x0, symName: __ZNSt3__16vectorIP7ZombiesNS_9allocatorIS2_EEE21_ConstructTransactionD2B8ue170006Ev, symObjAddr: 0x43A5C, symBinAddr: 0x100054D3C, symSize: 0x390 }
  - { offsetInCU: 0x1DDBC, offset: 0x2A0B0, size: 0x8, addend: 0x0, symName: __ZNKSt3__16vectorIP7ZombiesNS_9allocatorIS2_EEE17__annotate_shrinkB8ue170006Em, symObjAddr: 0x43DEC, symBinAddr: 0x1000550CC, symSize: 0x360 }
  - { offsetInCU: 0x1DDF0, offset: 0x2A0E4, size: 0x8, addend: 0x0, symName: __ZNKSt3__16vectorIP7ZombiesNS_9allocatorIS2_EEE11__recommendB8ue170006Em, symObjAddr: 0x4414C, symBinAddr: 0x10005542C, symSize: 0x45C }
  - { offsetInCU: 0x1DE4B, offset: 0x2A13F, size: 0x8, addend: 0x0, symName: __ZNKSt3__16vectorIP7ZombiesNS_9allocatorIS2_EEE8max_sizeEv, symObjAddr: 0x44E04, symBinAddr: 0x1000560E4, symSize: 0x3B8 }
  - { offsetInCU: 0x1DE73, offset: 0x2A167, size: 0x8, addend: 0x0, symName: __ZNKSt3__16vectorIP7ZombiesNS_9allocatorIS2_EEE20__throw_length_errorB8ue170006Ev, symObjAddr: 0x451BC, symBinAddr: 0x10005649C, symSize: 0x80 }
  - { offsetInCU: 0x1DE98, offset: 0x2A18C, size: 0x8, addend: 0x0, symName: __ZNKSt3__16vectorIP7ZombiesNS_9allocatorIS2_EEE7__allocB8ue170006Ev, symObjAddr: 0x4523C, symBinAddr: 0x10005651C, symSize: 0xE4 }
  - { offsetInCU: 0x1DEBD, offset: 0x2A1B1, size: 0x8, addend: 0x0, symName: __ZNKSt3__117__compressed_pairIPP7ZombiesNS_9allocatorIS2_EEE6secondB8ue170006Ev, symObjAddr: 0x45320, symBinAddr: 0x100056600, symSize: 0x108 }
  - { offsetInCU: 0x1DEE2, offset: 0x2A1D6, size: 0x8, addend: 0x0, symName: __ZNKSt3__122__compressed_pair_elemINS_9allocatorIP7ZombiesEELi1ELb1EE5__getB8ue170006Ev, symObjAddr: 0x45428, symBinAddr: 0x100056708, symSize: 0x74 }
  - { offsetInCU: 0x1DF07, offset: 0x2A1FB, size: 0x8, addend: 0x0, symName: __ZNSt3__116reverse_iteratorIPP7ZombiesEC1B8ue170006ES3_, symObjAddr: 0x45BA0, symBinAddr: 0x100056C24, symSize: 0x80 }
  - { offsetInCU: 0x1DF3E, offset: 0x2A232, size: 0x8, addend: 0x0, symName: __ZNKSt3__116reverse_iteratorIPP7ZombiesE4baseB8ue170006Ev, symObjAddr: 0x45C20, symBinAddr: 0x100056CA4, symSize: 0xB0 }
  - { offsetInCU: 0x1DF63, offset: 0x2A257, size: 0x8, addend: 0x0, symName: __ZNKSt3__16vectorIP7ZombiesNS_9allocatorIS2_EEE14__annotate_newB8ue170006Em, symObjAddr: 0x45CD0, symBinAddr: 0x100056D54, symSize: 0x360 }
  - { offsetInCU: 0x1DFBA, offset: 0x2A2AE, size: 0x8, addend: 0x0, symName: __ZNKSt3__111__move_loopINS_17_ClassicAlgPolicyEEclB8ue170006INS_16reverse_iteratorIPP7ZombiesEES8_S8_EENS_4pairIT_T1_EESA_T0_SB_, symObjAddr: 0x479F0, symBinAddr: 0x100058A74, symSize: 0x45C }
  - { offsetInCU: 0x1E031, offset: 0x2A325, size: 0x8, addend: 0x0, symName: __ZNSt3__18_IterOpsINS_17_ClassicAlgPolicyEE11__iter_moveB8ue170006IRNS_16reverse_iteratorIPP7ZombiesEEEENS_9enable_ifIXsr12is_referenceIDTdeclsr3stdE7declvalIRT_EEEEE5valueEDTclsr3stdE4movedeclsr3stdE7declvalISC_EEEEE4typeEOSB_, symObjAddr: 0x48A98, symBinAddr: 0x100059B1C, symSize: 0xB8 }
  - { offsetInCU: 0x1E05D, offset: 0x2A351, size: 0x8, addend: 0x0, symName: __ZNKSt3__116reverse_iteratorIPP7ZombiesEdeB8ue170006Ev, symObjAddr: 0x48B50, symBinAddr: 0x100059BD4, symSize: 0x184 }
  - { offsetInCU: 0x1E090, offset: 0x2A384, size: 0x8, addend: 0x0, symName: __ZNSt3__116reverse_iteratorIPP7ZombiesEppB8ue170006Ev, symObjAddr: 0x48CD4, symBinAddr: 0x100059D58, symSize: 0x1B0 }
  - { offsetInCU: 0x1E0B5, offset: 0x2A3A9, size: 0x8, addend: 0x0, symName: __ZNSt3__18_IterOpsINS_17_ClassicAlgPolicyEE25__validate_iter_referenceB8ue170006IRNS_16reverse_iteratorIPP7ZombiesEEEEvv, symObjAddr: 0x48E84, symBinAddr: 0x100059F08, symSize: 0x4 }
  - { offsetInCU: 0x1E0D3, offset: 0x2A3C7, size: 0x8, addend: 0x0, symName: __ZNSt3__118__unwrap_iter_implINS_16reverse_iteratorIPP7ZombiesEELb0EE8__unwrapB8ue170006ES5_, symObjAddr: 0x48E88, symBinAddr: 0x100059F0C, symSize: 0x274 }
  - { offsetInCU: 0x1E0FF, offset: 0x2A3F3, size: 0x8, addend: 0x0, symName: __ZNSt3__14pairINS_16reverse_iteratorIPP7ZombiesEES5_EC1B8ue170006IS5_S5_LPv0EEEOT_OT0_, symObjAddr: 0x490FC, symBinAddr: 0x10005A180, symSize: 0x88 }
  - { offsetInCU: 0x1E15C, offset: 0x2A450, size: 0x8, addend: 0x0, symName: __ZNSt3__14pairINS_16reverse_iteratorIPP7ZombiesEES5_EC2B8ue170006IS5_S5_LPv0EEEOT_OT0_, symObjAddr: 0x49184, symBinAddr: 0x10005A208, symSize: 0xA0 }
  - { offsetInCU: 0x1E1B9, offset: 0x2A4AD, size: 0x8, addend: 0x0, symName: __ZNSt3__118__unwrap_iter_implINS_16reverse_iteratorIPP7ZombiesEELb0EE8__rewrapB8ue170006ES5_S5_, symObjAddr: 0x49224, symBinAddr: 0x10005A2A8, symSize: 0x2E0 }
  - { offsetInCU: 0x1E1EF, offset: 0x2A4E3, size: 0x8, addend: 0x0, symName: __ZNSt3__116reverse_iteratorIPP7ZombiesEC2B8ue170006ES3_, symObjAddr: 0x49504, symBinAddr: 0x10005A588, symSize: 0x10C }
  - { offsetInCU: 0x1E226, offset: 0x2A51A, size: 0x8, addend: 0x0, symName: __ZNKSt3__111__wrap_iterIPP7ZombiesE4baseB8ue170006Ev, symObjAddr: 0x4A3D0, symBinAddr: 0x10005B454, symSize: 0xAC }
  - { offsetInCU: 0x1E24B, offset: 0x2A53F, size: 0x8, addend: 0x0, symName: __ZNKSt3__111__wrap_iterIPP7ZombiesEplB8ue170006El, symObjAddr: 0x4A47C, symBinAddr: 0x10005B500, symSize: 0x258 }
  - { offsetInCU: 0x1E292, offset: 0x2A586, size: 0x8, addend: 0x0, symName: __ZNK10ComparatorclEPK7ZombiesS2_, symObjAddr: 0x4A6D4, symBinAddr: 0x10005B758, symSize: 0xA4C }
  - { offsetInCU: 0x1E2EF, offset: 0x2A5E3, size: 0x8, addend: 0x0, symName: __ZNKSt3__111__wrap_iterIPP7ZombiesEdeB8ue170006Ev, symObjAddr: 0x4B120, symBinAddr: 0x10005C1A4, symSize: 0xF4 }
  - { offsetInCU: 0x1E314, offset: 0x2A608, size: 0x8, addend: 0x0, symName: __ZNSt3__111__wrap_iterIPP7ZombiesEmmB8ue170006Ev, symObjAddr: 0x4B214, symBinAddr: 0x10005C298, symSize: 0x1A8 }
  - { offsetInCU: 0x1E339, offset: 0x2A62D, size: 0x8, addend: 0x0, symName: __ZNSt3__18_IterOpsINS_17_ClassicAlgPolicyEE11__iter_moveB8ue170006IRNS_11__wrap_iterIPP7ZombiesEEEENS_9enable_ifIXsr12is_referenceIDTdeclsr3stdE7declvalIRT_EEEEE5valueEDTclsr3stdE4movedeclsr3stdE7declvalISC_EEEEE4typeEOSB_, symObjAddr: 0x4B3BC, symBinAddr: 0x10005C440, symSize: 0xB8 }
  - { offsetInCU: 0x1E365, offset: 0x2A659, size: 0x8, addend: 0x0, symName: __ZNSt3__111__wrap_iterIPP7ZombiesEpLB8ue170006El, symObjAddr: 0x4B474, symBinAddr: 0x10005C4F8, symSize: 0x228 }
  - { offsetInCU: 0x1E398, offset: 0x2A68C, size: 0x8, addend: 0x0, symName: __ZNSt3__18_IterOpsINS_17_ClassicAlgPolicyEE25__validate_iter_referenceB8ue170006IRNS_11__wrap_iterIPP7ZombiesEEEEvv, symObjAddr: 0x4B75C, symBinAddr: 0x10005C7E0, symSize: 0x4 }
  - { offsetInCU: 0x1E3B6, offset: 0x2A6AA, size: 0x8, addend: 0x0, symName: __ZNSt3__16vectorIP7ZombiesNS_9allocatorIS2_EEE11__make_iterB8ue170006EPS2_, symObjAddr: 0x4B760, symBinAddr: 0x10005C7E4, symSize: 0x244 }
  - { offsetInCU: 0x1E3EC, offset: 0x2A6E0, size: 0x8, addend: 0x0, symName: __ZNSt3__111__wrap_iterIPP7ZombiesEC1B8ue170006ES3_, symObjAddr: 0x4B9A4, symBinAddr: 0x10005CA28, symSize: 0x80 }
  - { offsetInCU: 0x1E423, offset: 0x2A717, size: 0x8, addend: 0x0, symName: __ZNSt3__111__wrap_iterIPP7ZombiesEC2B8ue170006ES3_, symObjAddr: 0x4BA24, symBinAddr: 0x10005CAA8, symSize: 0xC8 }
  - { offsetInCU: 0x1E478, offset: 0x2A76C, size: 0x8, addend: 0x0, symName: __ZNKSt3__18ios_base4failB8ue170006Ev, symObjAddr: 0x4E678, symBinAddr: 0x10005CB70, symSize: 0x170 }
  - { offsetInCU: 0x1E49F, offset: 0x2A793, size: 0x8, addend: 0x0, symName: __ZNKSt3__15dequeI7ZombiesNS_9allocatorIS1_EEE6__sizeB8ue170006Ev, symObjAddr: 0x4E7E8, symBinAddr: 0x10005CCE0, symSize: 0x100 }
  - { offsetInCU: 0x1E4C4, offset: 0x2A7B8, size: 0x8, addend: 0x0, symName: __ZNKSt3__117__compressed_pairImNS_9allocatorI7ZombiesEEE5firstB8ue170006Ev, symObjAddr: 0x4E8E8, symBinAddr: 0x10005CDE0, symSize: 0x124 }
  - { offsetInCU: 0x1E4E9, offset: 0x2A7DD, size: 0x8, addend: 0x0, symName: __ZNKSt3__122__compressed_pair_elemImLi0ELb0EE5__getB8ue170006Ev, symObjAddr: 0x4EA0C, symBinAddr: 0x10005CF04, symSize: 0xAC }
  - { offsetInCU: 0x1E50E, offset: 0x2A802, size: 0x8, addend: 0x0, symName: __ZNKSt3__16vectorIP7ZombiesNS_9allocatorIS2_EEE5emptyB8ue170006Ev, symObjAddr: 0x4EAB8, symBinAddr: 0x10005CFB0, symSize: 0xF8 }
  - { offsetInCU: 0x1E533, offset: 0x2A827, size: 0x8, addend: 0x0, symName: __ZNKSt3__16vectorIP7ZombiesNS_9allocatorIS2_EEE5frontB8ue170006Ev, symObjAddr: 0x4EBB0, symBinAddr: 0x10005D0A8, symSize: 0xF4 }
  - { offsetInCU: 0x1E558, offset: 0x2A84C, size: 0x8, addend: 0x0, symName: __ZNSt3__16vectorINS_12basic_stringIcNS_11char_traitsIcEENS_9allocatorIcEEEENS4_IS6_EEE22__construct_one_at_endB8ue170006IJRKS6_EEEvDpOT_, symObjAddr: 0x4EDA4, symBinAddr: 0x10005D19C, symSize: 0x550 }
  - { offsetInCU: 0x1E5AC, offset: 0x2A8A0, size: 0x8, addend: 0x0, symName: __ZNSt3__16vectorINS_12basic_stringIcNS_11char_traitsIcEENS_9allocatorIcEEEENS4_IS6_EEE21__push_back_slow_pathIRKS6_EEvOT_, symObjAddr: 0x4F2F4, symBinAddr: 0x10005D6EC, symSize: 0x5B0 }
  - { offsetInCU: 0x1E629, offset: 0x2A91D, size: 0x8, addend: 0x0, symName: __ZNKSt3__16vectorINS_12basic_stringIcNS_11char_traitsIcEENS_9allocatorIcEEEENS4_IS6_EEE11__recommendB8ue170006Em, symObjAddr: 0x50C40, symBinAddr: 0x10005DC9C, symSize: 0x45C }
  - { offsetInCU: 0x1E684, offset: 0x2A978, size: 0x8, addend: 0x0, symName: __ZNSt3__114__split_bufferINS_12basic_stringIcNS_11char_traitsIcEENS_9allocatorIcEEEERNS4_IS6_EEEC1EmmS8_, symObjAddr: 0x5109C, symBinAddr: 0x10005E0F8, symSize: 0x90 }
  - { offsetInCU: 0x1E6D9, offset: 0x2A9CD, size: 0x8, addend: 0x0, symName: __ZNSt3__114__split_bufferINS_12basic_stringIcNS_11char_traitsIcEENS_9allocatorIcEEEERNS4_IS6_EEED1Ev, symObjAddr: 0x51988, symBinAddr: 0x10005E9E4, symSize: 0x78 }
  - { offsetInCU: 0x1E70E, offset: 0x2AA02, size: 0x8, addend: 0x0, symName: __ZNSt3__114__split_bufferINS_12basic_stringIcNS_11char_traitsIcEENS_9allocatorIcEEEERNS4_IS6_EEEC2EmmS8_, symObjAddr: 0x5210C, symBinAddr: 0x10005EA5C, symSize: 0x7E8 }
  - { offsetInCU: 0x1E788, offset: 0x2AA7C, size: 0x8, addend: 0x0, symName: __ZNSt3__117__compressed_pairIPNS_12basic_stringIcNS_11char_traitsIcEENS_9allocatorIcEEEERNS4_IS6_EEEC1B8ue170006IDnS9_EEOT_OT0_, symObjAddr: 0x528F4, symBinAddr: 0x10005F244, symSize: 0x88 }
  - { offsetInCU: 0x1E7DF, offset: 0x2AAD3, size: 0x8, addend: 0x0, symName: __ZNSt3__114__split_bufferINS_12basic_stringIcNS_11char_traitsIcEENS_9allocatorIcEEEERNS4_IS6_EEE7__allocB8ue170006Ev, symObjAddr: 0x52C08, symBinAddr: 0x10005F2CC, symSize: 0xE4 }
  - { offsetInCU: 0x1E804, offset: 0x2AAF8, size: 0x8, addend: 0x0, symName: __ZNSt3__114__split_bufferINS_12basic_stringIcNS_11char_traitsIcEENS_9allocatorIcEEEERNS4_IS6_EEE9__end_capB8ue170006Ev, symObjAddr: 0x52CEC, symBinAddr: 0x10005F3B0, symSize: 0x100 }
  - { offsetInCU: 0x1E829, offset: 0x2AB1D, size: 0x8, addend: 0x0, symName: __ZNSt3__117__compressed_pairIPNS_12basic_stringIcNS_11char_traitsIcEENS_9allocatorIcEEEERNS4_IS6_EEEC2B8ue170006IDnS9_EEOT_OT0_, symObjAddr: 0x52DEC, symBinAddr: 0x10005F4B0, symSize: 0x198 }
  - { offsetInCU: 0x1E880, offset: 0x2AB74, size: 0x8, addend: 0x0, symName: __ZNSt3__122__compressed_pair_elemIRNS_9allocatorINS_12basic_stringIcNS_11char_traitsIcEENS1_IcEEEEEELi1ELb0EEC2B8ue170006IS8_vEEOT_, symObjAddr: 0x52F84, symBinAddr: 0x10005F648, symSize: 0xEC }
  - { offsetInCU: 0x1E8C1, offset: 0x2ABB5, size: 0x8, addend: 0x0, symName: __ZNSt3__117__compressed_pairIPNS_12basic_stringIcNS_11char_traitsIcEENS_9allocatorIcEEEERNS4_IS6_EEE6secondB8ue170006Ev, symObjAddr: 0x53140, symBinAddr: 0x10005F734, symSize: 0x110 }
  - { offsetInCU: 0x1E8E6, offset: 0x2ABDA, size: 0x8, addend: 0x0, symName: __ZNSt3__122__compressed_pair_elemIRNS_9allocatorINS_12basic_stringIcNS_11char_traitsIcEENS1_IcEEEEEELi1ELb0EE5__getB8ue170006Ev, symObjAddr: 0x53250, symBinAddr: 0x10005F844, symSize: 0xD8 }
  - { offsetInCU: 0x1E90B, offset: 0x2ABFF, size: 0x8, addend: 0x0, symName: __ZNSt3__117__compressed_pairIPNS_12basic_stringIcNS_11char_traitsIcEENS_9allocatorIcEEEERNS4_IS6_EEE5firstB8ue170006Ev, symObjAddr: 0x53328, symBinAddr: 0x10005F91C, symSize: 0x124 }
  - { offsetInCU: 0x1E930, offset: 0x2AC24, size: 0x8, addend: 0x0, symName: __ZNSt3__129_AllocatorDestroyRangeReverseINS_9allocatorINS_12basic_stringIcNS_11char_traitsIcEENS1_IcEEEEEENS_16reverse_iteratorIPS6_EEEC1B8ue170006ERS7_RSA_SD_, symObjAddr: 0x542C8, symBinAddr: 0x100060414, symSize: 0x90 }
  - { offsetInCU: 0x1E98B, offset: 0x2AC7F, size: 0x8, addend: 0x0, symName: __ZNSt3__116allocator_traitsINS_9allocatorINS_12basic_stringIcNS_11char_traitsIcEENS1_IcEEEEEEE9constructB8ue170006IS6_JS6_EvEEvRS7_PT_DpOT0_, symObjAddr: 0x543F4, symBinAddr: 0x1000604A4, symSize: 0x8C }
  - { offsetInCU: 0x1E9E2, offset: 0x2ACD6, size: 0x8, addend: 0x0, symName: __ZNSt3__128__exception_guard_exceptionsINS_29_AllocatorDestroyRangeReverseINS_9allocatorINS_12basic_stringIcNS_11char_traitsIcEENS2_IcEEEEEENS_16reverse_iteratorIPS7_EEEEE10__completeB8ue170006Ev, symObjAddr: 0x54820, symBinAddr: 0x100060530, symSize: 0xD8 }
  - { offsetInCU: 0x1EA07, offset: 0x2ACFB, size: 0x8, addend: 0x0, symName: __ZNSt3__128__exception_guard_exceptionsINS_29_AllocatorDestroyRangeReverseINS_9allocatorINS_12basic_stringIcNS_11char_traitsIcEENS2_IcEEEEEENS_16reverse_iteratorIPS7_EEEEED1B8ue170006Ev, symObjAddr: 0x548F8, symBinAddr: 0x100060608, symSize: 0x78 }
  - { offsetInCU: 0x1EA30, offset: 0x2AD24, size: 0x8, addend: 0x0, symName: __ZNSt3__128__exception_guard_exceptionsINS_29_AllocatorDestroyRangeReverseINS_9allocatorINS_12basic_stringIcNS_11char_traitsIcEENS2_IcEEEEEENS_16reverse_iteratorIPS7_EEEEEC1B8ue170006ESC_, symObjAddr: 0x54970, symBinAddr: 0x100060680, symSize: 0x84 }
  - { offsetInCU: 0x1EA68, offset: 0x2AD5C, size: 0x8, addend: 0x0, symName: __ZNSt3__128__exception_guard_exceptionsINS_29_AllocatorDestroyRangeReverseINS_9allocatorINS_12basic_stringIcNS_11char_traitsIcEENS2_IcEEEEEENS_16reverse_iteratorIPS7_EEEEEC2B8ue170006ESC_, symObjAddr: 0x549F4, symBinAddr: 0x100060704, symSize: 0xF8 }
  - { offsetInCU: 0x1EAA0, offset: 0x2AD94, size: 0x8, addend: 0x0, symName: __ZNSt3__129_AllocatorDestroyRangeReverseINS_9allocatorINS_12basic_stringIcNS_11char_traitsIcEENS1_IcEEEEEENS_16reverse_iteratorIPS6_EEEC2B8ue170006ERS7_RSA_SD_, symObjAddr: 0x54AEC, symBinAddr: 0x1000607FC, symSize: 0x20C }
  - { offsetInCU: 0x1EAF6, offset: 0x2ADEA, size: 0x8, addend: 0x0, symName: __ZNSt3__19allocatorINS_12basic_stringIcNS_11char_traitsIcEENS0_IcEEEEE9constructB8ue170006IS5_JS5_EEEvPT_DpOT0_, symObjAddr: 0x54CF8, symBinAddr: 0x100060A08, symSize: 0xEC }
  - { offsetInCU: 0x1EB4B, offset: 0x2AE3F, size: 0x8, addend: 0x0, symName: __ZNSt3__128__exception_guard_exceptionsINS_29_AllocatorDestroyRangeReverseINS_9allocatorINS_12basic_stringIcNS_11char_traitsIcEENS2_IcEEEEEENS_16reverse_iteratorIPS7_EEEEED2B8ue170006Ev, symObjAddr: 0x54FF8, symBinAddr: 0x100060AF4, symSize: 0x17C }
  - { offsetInCU: 0x1EB74, offset: 0x2AE68, size: 0x8, addend: 0x0, symName: __ZNKSt3__129_AllocatorDestroyRangeReverseINS_9allocatorINS_12basic_stringIcNS_11char_traitsIcEENS1_IcEEEEEENS_16reverse_iteratorIPS6_EEEclB8ue170006Ev, symObjAddr: 0x55174, symBinAddr: 0x100060C70, symSize: 0x418 }
  - { offsetInCU: 0x1EB9A, offset: 0x2AE8E, size: 0x8, addend: 0x0, symName: __ZNSt3__116reverse_iteratorINS0_IPNS_12basic_stringIcNS_11char_traitsIcEENS_9allocatorIcEEEEEEEC1B8ue170006ES8_, symObjAddr: 0x55730, symBinAddr: 0x10006122C, symSize: 0x29C }
  - { offsetInCU: 0x1EBD6, offset: 0x2AECA, size: 0x8, addend: 0x0, symName: __ZNSt3__116reverse_iteratorINS0_IPNS_12basic_stringIcNS_11char_traitsIcEENS_9allocatorIcEEEEEEEppB8ue170006Ev, symObjAddr: 0x55D5C, symBinAddr: 0x100061858, symSize: 0x100 }
  - { offsetInCU: 0x1EBFB, offset: 0x2AEEF, size: 0x8, addend: 0x0, symName: __ZNKSt3__116reverse_iteratorINS0_IPNS_12basic_stringIcNS_11char_traitsIcEENS_9allocatorIcEEEEEEE4baseB8ue170006Ev, symObjAddr: 0x55E5C, symBinAddr: 0x100061958, symSize: 0x258 }
  - { offsetInCU: 0x1EC26, offset: 0x2AF1A, size: 0x8, addend: 0x0, symName: __ZNSt3__119__to_address_helperINS_16reverse_iteratorINS1_IPNS_12basic_stringIcNS_11char_traitsIcEENS_9allocatorIcEEEEEEEEvE6__callB8ue170006ERKSA_, symObjAddr: 0x560B4, symBinAddr: 0x100061BB0, symSize: 0x70 }
  - { offsetInCU: 0x1EC49, offset: 0x2AF3D, size: 0x8, addend: 0x0, symName: __ZNKSt3__116reverse_iteratorINS0_IPNS_12basic_stringIcNS_11char_traitsIcEENS_9allocatorIcEEEEEEEptB8ue170006Ev, symObjAddr: 0x56124, symBinAddr: 0x100061C20, symSize: 0x6C }
  - { offsetInCU: 0x1EC6E, offset: 0x2AF62, size: 0x8, addend: 0x0, symName: __ZNKSt3__116reverse_iteratorINS0_IPNS_12basic_stringIcNS_11char_traitsIcEENS_9allocatorIcEEEEEEEdeB8ue170006Ev, symObjAddr: 0x56190, symBinAddr: 0x100061C8C, symSize: 0x2C4 }
  - { offsetInCU: 0x1ECA6, offset: 0x2AF9A, size: 0x8, addend: 0x0, symName: __ZNSt3__116reverse_iteratorIPNS_12basic_stringIcNS_11char_traitsIcEENS_9allocatorIcEEEEEmmB8ue170006Ev, symObjAddr: 0x56454, symBinAddr: 0x100061F50, symSize: 0x1B0 }
  - { offsetInCU: 0x1ECCB, offset: 0x2AFBF, size: 0x8, addend: 0x0, symName: __ZNSt3__116reverse_iteratorINS0_IPNS_12basic_stringIcNS_11char_traitsIcEENS_9allocatorIcEEEEEEEC2B8ue170006ES8_, symObjAddr: 0x56604, symBinAddr: 0x100062100, symSize: 0x284 }
  - { offsetInCU: 0x1ED07, offset: 0x2AFFB, size: 0x8, addend: 0x0, symName: __ZNSt3__114__split_bufferINS_12basic_stringIcNS_11char_traitsIcEENS_9allocatorIcEEEERNS4_IS6_EEED2Ev, symObjAddr: 0x56994, symBinAddr: 0x100062384, symSize: 0x16C }
  - { offsetInCU: 0x1ED32, offset: 0x2B026, size: 0x8, addend: 0x0, symName: __ZNSt3__114__split_bufferINS_12basic_stringIcNS_11char_traitsIcEENS_9allocatorIcEEEERNS4_IS6_EEE5clearB8ue170006Ev, symObjAddr: 0x56B00, symBinAddr: 0x1000624F0, symSize: 0xB4 }
  - { offsetInCU: 0x1ED57, offset: 0x2B04B, size: 0x8, addend: 0x0, symName: __ZNKSt3__114__split_bufferINS_12basic_stringIcNS_11char_traitsIcEENS_9allocatorIcEEEERNS4_IS6_EEE8capacityB8ue170006Ev, symObjAddr: 0x56BB4, symBinAddr: 0x1000625A4, symSize: 0x144 }
  - { offsetInCU: 0x1ED7C, offset: 0x2B070, size: 0x8, addend: 0x0, symName: __ZNSt3__114__split_bufferINS_12basic_stringIcNS_11char_traitsIcEENS_9allocatorIcEEEERNS4_IS6_EEE17__destruct_at_endB8ue170006EPS6_, symObjAddr: 0x56CF8, symBinAddr: 0x1000626E8, symSize: 0x74 }
  - { offsetInCU: 0x1EDAF, offset: 0x2B0A3, size: 0x8, addend: 0x0, symName: __ZNSt3__114__split_bufferINS_12basic_stringIcNS_11char_traitsIcEENS_9allocatorIcEEEERNS4_IS6_EEE17__destruct_at_endB8ue170006EPS6_NS_17integral_constantIbLb0EEE, symObjAddr: 0x56D6C, symBinAddr: 0x10006275C, symSize: 0x224 }
  - { offsetInCU: 0x1EDEF, offset: 0x2B0E3, size: 0x8, addend: 0x0, symName: __ZNKSt3__114__split_bufferINS_12basic_stringIcNS_11char_traitsIcEENS_9allocatorIcEEEERNS4_IS6_EEE9__end_capB8ue170006Ev, symObjAddr: 0x56F90, symBinAddr: 0x100062980, symSize: 0x100 }
  - { offsetInCU: 0x1EE14, offset: 0x2B108, size: 0x8, addend: 0x0, symName: __ZNKSt3__117__compressed_pairIPNS_12basic_stringIcNS_11char_traitsIcEENS_9allocatorIcEEEERNS4_IS6_EEE5firstB8ue170006Ev, symObjAddr: 0x57090, symBinAddr: 0x100062A80, symSize: 0x124 }
  - { offsetInCU: 0x1EE39, offset: 0x2B12D, size: 0x8, addend: 0x0, symName: __ZNKSt3__15dequeINS_12basic_stringIcNS_11char_traitsIcEENS_9allocatorIcEEEENS4_IS6_EEE13__front_spareB8ue170006Ev, symObjAddr: 0x571B4, symBinAddr: 0x100062BA4, symSize: 0xB0 }
  - { offsetInCU: 0x1EE5E, offset: 0x2B152, size: 0x8, addend: 0x0, symName: __ZNSt3__15dequeINS_12basic_stringIcNS_11char_traitsIcEENS_9allocatorIcEEEENS4_IS6_EEE20__add_front_capacityEv, symObjAddr: 0x57264, symBinAddr: 0x100062C54, symSize: 0x14CC }
  - { offsetInCU: 0x1EF1D, offset: 0x2B211, size: 0x8, addend: 0x0, symName: __ZNKSt3__15dequeINS_12basic_stringIcNS_11char_traitsIcEENS_9allocatorIcEEEENS4_IS6_EEE25__annotate_increase_frontB8ue170006Em, symObjAddr: 0x58730, symBinAddr: 0x100064120, symSize: 0x108 }
  - { offsetInCU: 0x1EF51, offset: 0x2B245, size: 0x8, addend: 0x0, symName: __ZNSt3__116__deque_iteratorINS_12basic_stringIcNS_11char_traitsIcEENS_9allocatorIcEEEEPS6_RS6_PS7_lLl170EEmmB8ue170006Ev, symObjAddr: 0x58838, symBinAddr: 0x100064228, symSize: 0x534 }
  - { offsetInCU: 0x1EF76, offset: 0x2B26A, size: 0x8, addend: 0x0, symName: __ZNKSt3__15dequeINS_12basic_stringIcNS_11char_traitsIcEENS_9allocatorIcEEEENS4_IS6_EEE12__back_spareB8ue170006Ev, symObjAddr: 0x58D6C, symBinAddr: 0x10006475C, symSize: 0xD4 }
  - { offsetInCU: 0x1EF9B, offset: 0x2B28F, size: 0x8, addend: 0x0, symName: __ZNSt3__114__split_bufferIPNS_12basic_stringIcNS_11char_traitsIcEENS_9allocatorIcEEEENS4_IS7_EEE4backB8ue170006Ev, symObjAddr: 0x58E40, symBinAddr: 0x100064830, symSize: 0x18C }
  - { offsetInCU: 0x1EFC0, offset: 0x2B2B4, size: 0x8, addend: 0x0, symName: __ZNSt3__114__split_bufferIPNS_12basic_stringIcNS_11char_traitsIcEENS_9allocatorIcEEEENS4_IS7_EEE8pop_backB8ue170006Ev, symObjAddr: 0x58FCC, symBinAddr: 0x1000649BC, symSize: 0x150 }
  - { offsetInCU: 0x1EFE5, offset: 0x2B2D9, size: 0x8, addend: 0x0, symName: __ZNSt3__114__split_bufferIPNS_12basic_stringIcNS_11char_traitsIcEENS_9allocatorIcEEEENS4_IS7_EEE10push_frontERKS7_, symObjAddr: 0x5911C, symBinAddr: 0x100064B0C, symSize: 0x1214 }
  - { offsetInCU: 0x1F063, offset: 0x2B357, size: 0x8, addend: 0x0, symName: __ZNKSt3__114__split_bufferIPNS_12basic_stringIcNS_11char_traitsIcEENS_9allocatorIcEEEENS4_IS7_EEE13__front_spareB8ue170006Ev, symObjAddr: 0x5A330, symBinAddr: 0x100065D20, symSize: 0xF8 }
  - { offsetInCU: 0x1F088, offset: 0x2B37C, size: 0x8, addend: 0x0, symName: __ZNSt3__114__split_bufferIPNS_12basic_stringIcNS_11char_traitsIcEENS_9allocatorIcEEEENS4_IS7_EEE10push_frontEOS7_, symObjAddr: 0x5A428, symBinAddr: 0x100065E18, symSize: 0x1214 }
  - { offsetInCU: 0x1F106, offset: 0x2B3FA, size: 0x8, addend: 0x0, symName: __ZNSt3__116allocator_traitsINS_9allocatorINS_12basic_stringIcNS_11char_traitsIcEENS1_IcEEEEEEE8allocateB8ue170006ERS7_m, symObjAddr: 0x5B63C, symBinAddr: 0x10006702C, symSize: 0x2C }
  - { offsetInCU: 0x1F139, offset: 0x2B42D, size: 0x8, addend: 0x0, symName: __ZNSt3__114__split_bufferIPNS_12basic_stringIcNS_11char_traitsIcEENS_9allocatorIcEEEENS4_IS7_EEE9push_backEOS7_, symObjAddr: 0x5B668, symBinAddr: 0x100067058, symSize: 0x1138 }
  - { offsetInCU: 0x1F1B7, offset: 0x2B4AB, size: 0x8, addend: 0x0, symName: __ZNSt3__114__split_bufferIPNS_12basic_stringIcNS_11char_traitsIcEENS_9allocatorIcEEEERNS4_IS7_EEEC1EmmS9_, symObjAddr: 0x5C7A0, symBinAddr: 0x100068190, symSize: 0x90 }
  - { offsetInCU: 0x1F211, offset: 0x2B505, size: 0x8, addend: 0x0, symName: __ZNSt3__122__allocator_destructorINS_9allocatorINS_12basic_stringIcNS_11char_traitsIcEENS1_IcEEEEEEEC1B8ue170006ERS7_m, symObjAddr: 0x5C830, symBinAddr: 0x100068220, symSize: 0x88 }
  - { offsetInCU: 0x1F2C4, offset: 0x2B5B8, size: 0x8, addend: 0x0, symName: __ZNSt3__110unique_ptrIPNS_12basic_stringIcNS_11char_traitsIcEENS_9allocatorIcEEEENS_22__allocator_destructorINS4_IS6_EEEEEC1B8ue170006ILb1EvEES7_NS_16__dependent_typeINS_27__unique_ptr_deleter_sfinaeISA_EEXT_EE20__good_rval_ref_typeE, symObjAddr: 0x5C8B8, symBinAddr: 0x1000682A8, symSize: 0x88 }
  - { offsetInCU: 0x1F314, offset: 0x2B608, size: 0x8, addend: 0x0, symName: __ZNSt3__114__split_bufferIPNS_12basic_stringIcNS_11char_traitsIcEENS_9allocatorIcEEEERNS4_IS7_EEE9push_backEOS7_, symObjAddr: 0x5C940, symBinAddr: 0x100068330, symSize: 0x1138 }
  - { offsetInCU: 0x1F392, offset: 0x2B686, size: 0x8, addend: 0x0, symName: __ZNKSt3__110unique_ptrIPNS_12basic_stringIcNS_11char_traitsIcEENS_9allocatorIcEEEENS_22__allocator_destructorINS4_IS6_EEEEE3getB8ue170006Ev, symObjAddr: 0x5DA78, symBinAddr: 0x100069468, symSize: 0x13C }
  - { offsetInCU: 0x1F3B7, offset: 0x2B6AB, size: 0x8, addend: 0x0, symName: __ZNSt3__110unique_ptrIPNS_12basic_stringIcNS_11char_traitsIcEENS_9allocatorIcEEEENS_22__allocator_destructorINS4_IS6_EEEEE7releaseB8ue170006Ev, symObjAddr: 0x5DBB4, symBinAddr: 0x1000695A4, symSize: 0x20C }
  - { offsetInCU: 0x1F3EB, offset: 0x2B6DF, size: 0x8, addend: 0x0, symName: __ZNSt3__114__split_bufferIPNS_12basic_stringIcNS_11char_traitsIcEENS_9allocatorIcEEEERNS4_IS7_EEE9push_backB8ue170006ERKS7_, symObjAddr: 0x5DDC0, symBinAddr: 0x1000697B0, symSize: 0x1138 }
  - { offsetInCU: 0x1F469, offset: 0x2B75D, size: 0x8, addend: 0x0, symName: __ZNSt3__114__split_bufferIPNS_12basic_stringIcNS_11char_traitsIcEENS_9allocatorIcEEEENS4_IS7_EEE9__end_capB8ue170006Ev, symObjAddr: 0x5F0B8, symBinAddr: 0x10006AAA8, symSize: 0x100 }
  - { offsetInCU: 0x1F48E, offset: 0x2B782, size: 0x8, addend: 0x0, symName: __ZNSt3__114__split_bufferIPNS_12basic_stringIcNS_11char_traitsIcEENS_9allocatorIcEEEERNS4_IS7_EEE9__end_capB8ue170006Ev, symObjAddr: 0x5F1B8, symBinAddr: 0x10006ABA8, symSize: 0x100 }
  - { offsetInCU: 0x1F4B3, offset: 0x2B7A7, size: 0x8, addend: 0x0, symName: __ZNSt3__110unique_ptrIPNS_12basic_stringIcNS_11char_traitsIcEENS_9allocatorIcEEEENS_22__allocator_destructorINS4_IS6_EEEEED1B8ue170006Ev, symObjAddr: 0x5F2B8, symBinAddr: 0x10006ACA8, symSize: 0x78 }
  - { offsetInCU: 0x1F4DC, offset: 0x2B7D0, size: 0x8, addend: 0x0, symName: __ZNSt3__114__split_bufferIPNS_12basic_stringIcNS_11char_traitsIcEENS_9allocatorIcEEEERNS4_IS7_EEED1Ev, symObjAddr: 0x5F330, symBinAddr: 0x10006AD20, symSize: 0x78 }
  - { offsetInCU: 0x1F507, offset: 0x2B7FB, size: 0x8, addend: 0x0, symName: __ZNKSt3__15dequeINS_12basic_stringIcNS_11char_traitsIcEENS_9allocatorIcEEEENS4_IS6_EEE10__capacityB8ue170006Ev, symObjAddr: 0x5F3A8, symBinAddr: 0x10006AD98, symSize: 0x130 }
  - { offsetInCU: 0x1F52C, offset: 0x2B820, size: 0x8, addend: 0x0, symName: __ZNSt3__114__split_bufferIPNS_12basic_stringIcNS_11char_traitsIcEENS_9allocatorIcEEEERNS4_IS7_EEE18__construct_at_endINS_13move_iteratorIPS7_EEEENS_9enable_ifIXsr31__has_forward_iterator_categoryIT_EE5valueEvE4typeESG_SG_, symObjAddr: 0x5F78C, symBinAddr: 0x10006B17C, symSize: 0x414 }
  - { offsetInCU: 0x1F581, offset: 0x2B875, size: 0x8, addend: 0x0, symName: __ZNSt3__113move_iteratorIPPNS_12basic_stringIcNS_11char_traitsIcEENS_9allocatorIcEEEEEC1B8ue170006ES8_, symObjAddr: 0x5FBA0, symBinAddr: 0x10006B590, symSize: 0x80 }
  - { offsetInCU: 0x1F5B8, offset: 0x2B8AC, size: 0x8, addend: 0x0, symName: __ZNSt3__116allocator_traitsINS_9allocatorIPNS_12basic_stringIcNS_11char_traitsIcEENS1_IcEEEEEEE9constructB8ue170006IS7_JRKS7_EvEEvRS8_PT_DpOT0_, symObjAddr: 0x5FC20, symBinAddr: 0x10006B610, symSize: 0x8C }
  - { offsetInCU: 0x1F628, offset: 0x2B91C, size: 0x8, addend: 0x0, symName: __ZNKSt3__123__move_backward_trivialclB8ue170006IPNS_12basic_stringIcNS_11char_traitsIcEENS_9allocatorIcEEEES8_Li0EEENS_4pairIPT_PT0_EESB_SB_SD_, symObjAddr: 0x60A88, symBinAddr: 0x10006C478, symSize: 0x25C }
  - { offsetInCU: 0x1F693, offset: 0x2B987, size: 0x8, addend: 0x0, symName: __ZNSt3__14pairIPPNS_12basic_stringIcNS_11char_traitsIcEENS_9allocatorIcEEEES8_EC1B8ue170006IRS8_SB_LPv0EEEOT_OT0_, symObjAddr: 0x61800, symBinAddr: 0x10006D1F0, symSize: 0x88 }
  - { offsetInCU: 0x1F6F0, offset: 0x2B9E4, size: 0x8, addend: 0x0, symName: __ZNSt3__14pairIPPNS_12basic_stringIcNS_11char_traitsIcEENS_9allocatorIcEEEES8_EC2B8ue170006IRS8_SB_LPv0EEEOT_OT0_, symObjAddr: 0x61888, symBinAddr: 0x10006D278, symSize: 0x210 }
  - { offsetInCU: 0x1F74D, offset: 0x2BA41, size: 0x8, addend: 0x0, symName: __ZNSt3__118__unwrap_iter_implIPPNS_12basic_stringIcNS_11char_traitsIcEENS_9allocatorIcEEEELb1EE8__unwrapB8ue170006ES8_, symObjAddr: 0x61A98, symBinAddr: 0x10006D488, symSize: 0x24 }
  - { offsetInCU: 0x1F775, offset: 0x2BA69, size: 0x8, addend: 0x0, symName: __ZNSt3__14pairIPPNS_12basic_stringIcNS_11char_traitsIcEENS_9allocatorIcEEEES8_EC1B8ue170006IS8_S8_LPv0EEEOT_OT0_, symObjAddr: 0x61ABC, symBinAddr: 0x10006D4AC, symSize: 0x88 }
  - { offsetInCU: 0x1F7D2, offset: 0x2BAC6, size: 0x8, addend: 0x0, symName: __ZNSt3__14pairIPPNS_12basic_stringIcNS_11char_traitsIcEENS_9allocatorIcEEEES8_EC2B8ue170006IS8_S8_LPv0EEEOT_OT0_, symObjAddr: 0x61B44, symBinAddr: 0x10006D534, symSize: 0x210 }
  - { offsetInCU: 0x1F82F, offset: 0x2BB23, size: 0x8, addend: 0x0, symName: __ZNSt3__118__unwrap_iter_implIPPNS_12basic_stringIcNS_11char_traitsIcEENS_9allocatorIcEEEELb1EE8__rewrapB8ue170006ES8_S8_, symObjAddr: 0x61D54, symBinAddr: 0x10006D744, symSize: 0x13C }
  - { offsetInCU: 0x1F860, offset: 0x2BB54, size: 0x8, addend: 0x0, symName: __ZNSt3__114__split_bufferIPNS_12basic_stringIcNS_11char_traitsIcEENS_9allocatorIcEEEERNS4_IS7_EEE28__construct_at_end_with_sizeINS_13move_iteratorIPS7_EEEEvT_m, symObjAddr: 0x61E90, symBinAddr: 0x10006D880, symSize: 0x610 }
  - { offsetInCU: 0x1F8CF, offset: 0x2BBC3, size: 0x8, addend: 0x0, symName: __ZNSt3__114__split_bufferIPNS_12basic_stringIcNS_11char_traitsIcEENS_9allocatorIcEEEERNS4_IS7_EEE21_ConstructTransactionC1B8ue170006EPPS7_m, symObjAddr: 0x627F0, symBinAddr: 0x10006E1E0, symSize: 0x88 }
  - { offsetInCU: 0x1F914, offset: 0x2BC08, size: 0x8, addend: 0x0, symName: __ZNSt3__116allocator_traitsINS_9allocatorIPNS_12basic_stringIcNS_11char_traitsIcEENS1_IcEEEEEEE9constructB8ue170006IS7_JS7_EvEEvRS8_PT_DpOT0_, symObjAddr: 0x62878, symBinAddr: 0x10006E268, symSize: 0x8C }
  - { offsetInCU: 0x1F96B, offset: 0x2BC5F, size: 0x8, addend: 0x0, symName: __ZNSt3__114__split_bufferIPNS_12basic_stringIcNS_11char_traitsIcEENS_9allocatorIcEEEERNS4_IS7_EEE7__allocB8ue170006Ev, symObjAddr: 0x62904, symBinAddr: 0x10006E2F4, symSize: 0xE4 }
  - { offsetInCU: 0x1F990, offset: 0x2BC84, size: 0x8, addend: 0x0, symName: __ZNKSt3__113move_iteratorIPPNS_12basic_stringIcNS_11char_traitsIcEENS_9allocatorIcEEEEEdeB8ue170006Ev, symObjAddr: 0x629E8, symBinAddr: 0x10006E3D8, symSize: 0xF4 }
  - { offsetInCU: 0x1F9B5, offset: 0x2BCA9, size: 0x8, addend: 0x0, symName: __ZNSt3__113move_iteratorIPPNS_12basic_stringIcNS_11char_traitsIcEENS_9allocatorIcEEEEEppB8ue170006Ev, symObjAddr: 0x62ADC, symBinAddr: 0x10006E4CC, symSize: 0x1A8 }
  - { offsetInCU: 0x1F9DA, offset: 0x2BCCE, size: 0x8, addend: 0x0, symName: __ZNSt3__114__split_bufferIPNS_12basic_stringIcNS_11char_traitsIcEENS_9allocatorIcEEEERNS4_IS7_EEE21_ConstructTransactionD1B8ue170006Ev, symObjAddr: 0x62C84, symBinAddr: 0x10006E674, symSize: 0x78 }
  - { offsetInCU: 0x1FA03, offset: 0x2BCF7, size: 0x8, addend: 0x0, symName: __ZNSt3__114__split_bufferIPNS_12basic_stringIcNS_11char_traitsIcEENS_9allocatorIcEEEERNS4_IS7_EEE21_ConstructTransactionC2B8ue170006EPPS7_m, symObjAddr: 0x62CFC, symBinAddr: 0x10006E6EC, symSize: 0x324 }
  - { offsetInCU: 0x1FA48, offset: 0x2BD3C, size: 0x8, addend: 0x0, symName: __ZNSt3__19allocatorIPNS_12basic_stringIcNS_11char_traitsIcEENS0_IcEEEEE9constructB8ue170006IS6_JS6_EEEvPT_DpOT0_, symObjAddr: 0x63020, symBinAddr: 0x10006EA10, symSize: 0x168 }
  - { offsetInCU: 0x1FA9D, offset: 0x2BD91, size: 0x8, addend: 0x0, symName: __ZNSt3__117__compressed_pairIPPNS_12basic_stringIcNS_11char_traitsIcEENS_9allocatorIcEEEERNS4_IS7_EEE6secondB8ue170006Ev, symObjAddr: 0x63188, symBinAddr: 0x10006EB78, symSize: 0x110 }
  - { offsetInCU: 0x1FAC2, offset: 0x2BDB6, size: 0x8, addend: 0x0, symName: __ZNSt3__122__compressed_pair_elemIRNS_9allocatorIPNS_12basic_stringIcNS_11char_traitsIcEENS1_IcEEEEEELi1ELb0EE5__getB8ue170006Ev, symObjAddr: 0x63298, symBinAddr: 0x10006EC88, symSize: 0xD8 }
  - { offsetInCU: 0x1FAE7, offset: 0x2BDDB, size: 0x8, addend: 0x0, symName: __ZNSt3__114__split_bufferIPNS_12basic_stringIcNS_11char_traitsIcEENS_9allocatorIcEEEERNS4_IS7_EEE21_ConstructTransactionD2B8ue170006Ev, symObjAddr: 0x63370, symBinAddr: 0x10006ED60, symSize: 0x174 }
  - { offsetInCU: 0x1FB10, offset: 0x2BE04, size: 0x8, addend: 0x0, symName: __ZNKSt3__113move_iteratorIPPNS_12basic_stringIcNS_11char_traitsIcEENS_9allocatorIcEEEEE4baseB8ue170006Ev, symObjAddr: 0x637F4, symBinAddr: 0x10006F1E4, symSize: 0xAC }
  - { offsetInCU: 0x1FB35, offset: 0x2BE29, size: 0x8, addend: 0x0, symName: __ZNSt3__113move_iteratorIPPNS_12basic_stringIcNS_11char_traitsIcEENS_9allocatorIcEEEEEC2B8ue170006ES8_, symObjAddr: 0x638A0, symBinAddr: 0x10006F290, symSize: 0xC8 }
  - { offsetInCU: 0x1FB6C, offset: 0x2BE60, size: 0x8, addend: 0x0, symName: __ZNSt3__19allocatorIPNS_12basic_stringIcNS_11char_traitsIcEENS0_IcEEEEE9constructB8ue170006IS6_JRKS6_EEEvPT_DpOT0_, symObjAddr: 0x63968, symBinAddr: 0x10006F358, symSize: 0x168 }
  - { offsetInCU: 0x1FBC1, offset: 0x2BEB5, size: 0x8, addend: 0x0, symName: __ZNKSt3__114__move_trivialclB8ue170006IPNS_12basic_stringIcNS_11char_traitsIcEENS_9allocatorIcEEEES8_Li0EEENS_4pairIPT_PT0_EESB_SB_SD_, symObjAddr: 0x64810, symBinAddr: 0x100070200, symSize: 0x25C }
  - { offsetInCU: 0x1FC2C, offset: 0x2BF20, size: 0x8, addend: 0x0, symName: __ZNSt3__14pairIPPNS_12basic_stringIcNS_11char_traitsIcEENS_9allocatorIcEEEES8_EC1B8ue170006IRS8_S8_LPv0EEEOT_OT0_, symObjAddr: 0x6518C, symBinAddr: 0x100070B7C, symSize: 0x88 }
  - { offsetInCU: 0x1FC89, offset: 0x2BF7D, size: 0x8, addend: 0x0, symName: __ZNSt3__14pairIPPNS_12basic_stringIcNS_11char_traitsIcEENS_9allocatorIcEEEES8_EC2B8ue170006IRS8_S8_LPv0EEEOT_OT0_, symObjAddr: 0x65214, symBinAddr: 0x100070C04, symSize: 0x210 }
  - { offsetInCU: 0x1FCE6, offset: 0x2BFDA, size: 0x8, addend: 0x0, symName: __ZNSt3__114__split_bufferIPNS_12basic_stringIcNS_11char_traitsIcEENS_9allocatorIcEEEERNS4_IS7_EEEC2EmmS9_, symObjAddr: 0x65424, symBinAddr: 0x100070E14, symSize: 0x7D8 }
  - { offsetInCU: 0x1FD60, offset: 0x2C054, size: 0x8, addend: 0x0, symName: __ZNSt3__117__compressed_pairIPPNS_12basic_stringIcNS_11char_traitsIcEENS_9allocatorIcEEEERNS4_IS7_EEEC1B8ue170006IDnSA_EEOT_OT0_, symObjAddr: 0x65BFC, symBinAddr: 0x1000715EC, symSize: 0x88 }
  - { offsetInCU: 0x1FDB7, offset: 0x2C0AB, size: 0x8, addend: 0x0, symName: __ZNSt3__117__compressed_pairIPPNS_12basic_stringIcNS_11char_traitsIcEENS_9allocatorIcEEEERNS4_IS7_EEEC2B8ue170006IDnSA_EEOT_OT0_, symObjAddr: 0x65F10, symBinAddr: 0x100071900, symSize: 0x198 }
  - { offsetInCU: 0x1FE0E, offset: 0x2C102, size: 0x8, addend: 0x0, symName: __ZNSt3__122__compressed_pair_elemIRNS_9allocatorIPNS_12basic_stringIcNS_11char_traitsIcEENS1_IcEEEEEELi1ELb0EEC2B8ue170006IS9_vEEOT_, symObjAddr: 0x660A8, symBinAddr: 0x100071A98, symSize: 0xEC }
  - { offsetInCU: 0x1FE4F, offset: 0x2C143, size: 0x8, addend: 0x0, symName: __ZNSt3__19allocatorIPNS_12basic_stringIcNS_11char_traitsIcEENS0_IcEEEEE8allocateB8ue170006Em, symObjAddr: 0x66194, symBinAddr: 0x100071B84, symSize: 0xCC }
  - { offsetInCU: 0x1FE8C, offset: 0x2C180, size: 0x8, addend: 0x0, symName: __ZNSt3__116allocator_traitsINS_9allocatorIPNS_12basic_stringIcNS_11char_traitsIcEENS1_IcEEEEEEE8max_sizeB8ue170006IS8_vEEmRKS8_, symObjAddr: 0x66260, symBinAddr: 0x100071C50, symSize: 0x24 }
  - { offsetInCU: 0x1FEBA, offset: 0x2C1AE, size: 0x8, addend: 0x0, symName: __ZNKSt3__19allocatorIPNS_12basic_stringIcNS_11char_traitsIcEENS0_IcEEEEE8max_sizeB8ue170006Ev, symObjAddr: 0x66284, symBinAddr: 0x100071C74, symSize: 0x4C }
  - { offsetInCU: 0x1FEDF, offset: 0x2C1D3, size: 0x8, addend: 0x0, symName: __ZNSt3__122__allocator_destructorINS_9allocatorINS_12basic_stringIcNS_11char_traitsIcEENS1_IcEEEEEEEC2B8ue170006ERS7_m, symObjAddr: 0x662D0, symBinAddr: 0x100071CC0, symSize: 0x134 }
  - { offsetInCU: 0x1FF24, offset: 0x2C218, size: 0x8, addend: 0x0, symName: __ZNSt3__110unique_ptrIPNS_12basic_stringIcNS_11char_traitsIcEENS_9allocatorIcEEEENS_22__allocator_destructorINS4_IS6_EEEEEC2B8ue170006ILb1EvEES7_NS_16__dependent_typeINS_27__unique_ptr_deleter_sfinaeISA_EEXT_EE20__good_rval_ref_typeE, symObjAddr: 0x66404, symBinAddr: 0x100071DF4, symSize: 0x2BC }
  - { offsetInCU: 0x1FF7A, offset: 0x2C26E, size: 0x8, addend: 0x0, symName: __ZNSt3__117__compressed_pairIPNS_12basic_stringIcNS_11char_traitsIcEENS_9allocatorIcEEEENS_22__allocator_destructorINS4_IS6_EEEEEC1B8ue170006IRS7_SA_EEOT_OT0_, symObjAddr: 0x666C0, symBinAddr: 0x1000720B0, symSize: 0x88 }
  - { offsetInCU: 0x1FFD1, offset: 0x2C2C5, size: 0x8, addend: 0x0, symName: __ZNSt3__117__compressed_pairIPNS_12basic_stringIcNS_11char_traitsIcEENS_9allocatorIcEEEENS_22__allocator_destructorINS4_IS6_EEEEEC2B8ue170006IRS7_SA_EEOT_OT0_, symObjAddr: 0x66748, symBinAddr: 0x100072138, symSize: 0x1B4 }
  - { offsetInCU: 0x20028, offset: 0x2C31C, size: 0x8, addend: 0x0, symName: __ZNSt3__122__compressed_pair_elemIPNS_12basic_stringIcNS_11char_traitsIcEENS_9allocatorIcEEEELi0ELb0EEC2B8ue170006IRS7_vEEOT_, symObjAddr: 0x668FC, symBinAddr: 0x1000722EC, symSize: 0x144 }
  - { offsetInCU: 0x20069, offset: 0x2C35D, size: 0x8, addend: 0x0, symName: __ZNSt3__122__compressed_pair_elemINS_22__allocator_destructorINS_9allocatorINS_12basic_stringIcNS_11char_traitsIcEENS2_IcEEEEEEEELi1ELb0EEC2B8ue170006IS9_vEEOT_, symObjAddr: 0x66A40, symBinAddr: 0x100072430, symSize: 0x84 }
  - { offsetInCU: 0x200AA, offset: 0x2C39E, size: 0x8, addend: 0x0, symName: __ZNKSt3__117__compressed_pairIPNS_12basic_stringIcNS_11char_traitsIcEENS_9allocatorIcEEEENS_22__allocator_destructorINS4_IS6_EEEEE5firstB8ue170006Ev, symObjAddr: 0x66AC4, symBinAddr: 0x1000724B4, symSize: 0x124 }
  - { offsetInCU: 0x200CF, offset: 0x2C3C3, size: 0x8, addend: 0x0, symName: __ZNSt3__117__compressed_pairIPNS_12basic_stringIcNS_11char_traitsIcEENS_9allocatorIcEEEENS_22__allocator_destructorINS4_IS6_EEEEE5firstB8ue170006Ev, symObjAddr: 0x66BE8, symBinAddr: 0x1000725D8, symSize: 0x124 }
  - { offsetInCU: 0x200F4, offset: 0x2C3E8, size: 0x8, addend: 0x0, symName: __ZNSt3__117__compressed_pairIPPNS_12basic_stringIcNS_11char_traitsIcEENS_9allocatorIcEEEENS4_IS7_EEE5firstB8ue170006Ev, symObjAddr: 0x66D0C, symBinAddr: 0x1000726FC, symSize: 0x124 }
  - { offsetInCU: 0x20119, offset: 0x2C40D, size: 0x8, addend: 0x0, symName: __ZNSt3__122__compressed_pair_elemIPPNS_12basic_stringIcNS_11char_traitsIcEENS_9allocatorIcEEEELi0ELb0EE5__getB8ue170006Ev, symObjAddr: 0x66E30, symBinAddr: 0x100072820, symSize: 0xAC }
  - { offsetInCU: 0x2013E, offset: 0x2C432, size: 0x8, addend: 0x0, symName: __ZNSt3__117__compressed_pairIPPNS_12basic_stringIcNS_11char_traitsIcEENS_9allocatorIcEEEERNS4_IS7_EEE5firstB8ue170006Ev, symObjAddr: 0x66EDC, symBinAddr: 0x1000728CC, symSize: 0x124 }
  - { offsetInCU: 0x20163, offset: 0x2C457, size: 0x8, addend: 0x0, symName: __ZNSt3__110unique_ptrIPNS_12basic_stringIcNS_11char_traitsIcEENS_9allocatorIcEEEENS_22__allocator_destructorINS4_IS6_EEEEED2B8ue170006Ev, symObjAddr: 0x67000, symBinAddr: 0x1000729F0, symSize: 0x7C }
  - { offsetInCU: 0x2018C, offset: 0x2C480, size: 0x8, addend: 0x0, symName: __ZNSt3__110unique_ptrIPNS_12basic_stringIcNS_11char_traitsIcEENS_9allocatorIcEEEENS_22__allocator_destructorINS4_IS6_EEEEE5resetB8ue170006ES7_, symObjAddr: 0x6707C, symBinAddr: 0x100072A6C, symSize: 0x2CC }
  - { offsetInCU: 0x201CF, offset: 0x2C4C3, size: 0x8, addend: 0x0, symName: __ZNSt3__117__compressed_pairIPNS_12basic_stringIcNS_11char_traitsIcEENS_9allocatorIcEEEENS_22__allocator_destructorINS4_IS6_EEEEE6secondB8ue170006Ev, symObjAddr: 0x67348, symBinAddr: 0x100072D38, symSize: 0x12C }
  - { offsetInCU: 0x201F4, offset: 0x2C4E8, size: 0x8, addend: 0x0, symName: __ZNSt3__122__allocator_destructorINS_9allocatorINS_12basic_stringIcNS_11char_traitsIcEENS1_IcEEEEEEEclB8ue170006EPS6_, symObjAddr: 0x67474, symBinAddr: 0x100072E64, symSize: 0x128 }
  - { offsetInCU: 0x20227, offset: 0x2C51B, size: 0x8, addend: 0x0, symName: __ZNSt3__122__compressed_pair_elemINS_22__allocator_destructorINS_9allocatorINS_12basic_stringIcNS_11char_traitsIcEENS2_IcEEEEEEEELi1ELb0EE5__getB8ue170006Ev, symObjAddr: 0x6759C, symBinAddr: 0x100072F8C, symSize: 0xAC }
  - { offsetInCU: 0x2024C, offset: 0x2C540, size: 0x8, addend: 0x0, symName: __ZNSt3__114__split_bufferIPNS_12basic_stringIcNS_11char_traitsIcEENS_9allocatorIcEEEERNS4_IS7_EEED2Ev, symObjAddr: 0x67648, symBinAddr: 0x100073038, symSize: 0x16C }
  - { offsetInCU: 0x20277, offset: 0x2C56B, size: 0x8, addend: 0x0, symName: __ZNSt3__114__split_bufferIPNS_12basic_stringIcNS_11char_traitsIcEENS_9allocatorIcEEEERNS4_IS7_EEE5clearB8ue170006Ev, symObjAddr: 0x677B4, symBinAddr: 0x1000731A4, symSize: 0xB4 }
  - { offsetInCU: 0x2029C, offset: 0x2C590, size: 0x8, addend: 0x0, symName: __ZNKSt3__114__split_bufferIPNS_12basic_stringIcNS_11char_traitsIcEENS_9allocatorIcEEEERNS4_IS7_EEE8capacityB8ue170006Ev, symObjAddr: 0x67868, symBinAddr: 0x100073258, symSize: 0x144 }
  - { offsetInCU: 0x202C1, offset: 0x2C5B5, size: 0x8, addend: 0x0, symName: __ZNSt3__114__split_bufferIPNS_12basic_stringIcNS_11char_traitsIcEENS_9allocatorIcEEEERNS4_IS7_EEE17__destruct_at_endB8ue170006EPS7_, symObjAddr: 0x679AC, symBinAddr: 0x10007339C, symSize: 0x74 }
  - { offsetInCU: 0x202F4, offset: 0x2C5E8, size: 0x8, addend: 0x0, symName: __ZNSt3__114__split_bufferIPNS_12basic_stringIcNS_11char_traitsIcEENS_9allocatorIcEEEERNS4_IS7_EEE17__destruct_at_endB8ue170006EPS7_NS_17integral_constantIbLb0EEE, symObjAddr: 0x67A20, symBinAddr: 0x100073410, symSize: 0x224 }
  - { offsetInCU: 0x20334, offset: 0x2C628, size: 0x8, addend: 0x0, symName: __ZNKSt3__114__split_bufferIPNS_12basic_stringIcNS_11char_traitsIcEENS_9allocatorIcEEEERNS4_IS7_EEE9__end_capB8ue170006Ev, symObjAddr: 0x67C44, symBinAddr: 0x100073634, symSize: 0x100 }
  - { offsetInCU: 0x20359, offset: 0x2C64D, size: 0x8, addend: 0x0, symName: __ZNKSt3__117__compressed_pairIPPNS_12basic_stringIcNS_11char_traitsIcEENS_9allocatorIcEEEERNS4_IS7_EEE5firstB8ue170006Ev, symObjAddr: 0x67D44, symBinAddr: 0x100073734, symSize: 0x124 }
  - { offsetInCU: 0x2037E, offset: 0x2C672, size: 0x8, addend: 0x0, symName: __ZNKSt3__15dequeINS_12basic_stringIcNS_11char_traitsIcEENS_9allocatorIcEEEENS4_IS6_EEE6__sizeB8ue170006Ev, symObjAddr: 0x67E68, symBinAddr: 0x100073858, symSize: 0x100 }
  - { offsetInCU: 0x203A3, offset: 0x2C697, size: 0x8, addend: 0x0, symName: __ZNKSt3__117__compressed_pairImNS_9allocatorINS_12basic_stringIcNS_11char_traitsIcEENS1_IcEEEEEEE5firstB8ue170006Ev, symObjAddr: 0x67F68, symBinAddr: 0x100073958, symSize: 0x124 }
  - { offsetInCU: 0x203C8, offset: 0x2C6BC, size: 0x8, addend: 0x0, symName: __ZNKSt3__15dequeINS_12basic_stringIcNS_11char_traitsIcEENS_9allocatorIcEEEENS4_IS6_EEE22__annotate_shrink_backB8ue170006Emm, symObjAddr: 0x6808C, symBinAddr: 0x100073A7C, symSize: 0xA4 }
  - { offsetInCU: 0x2040B, offset: 0x2C6FF, size: 0x8, addend: 0x0, symName: __ZNSt3__15dequeINS_12basic_stringIcNS_11char_traitsIcEENS_9allocatorIcEEEENS4_IS6_EEE25__maybe_remove_back_spareB8ue170006Eb, symObjAddr: 0x68130, symBinAddr: 0x100073B20, symSize: 0x2CC }
  - { offsetInCU: 0x2043F, offset: 0x2C733, size: 0x8, addend: 0x0, symName: __ZNKSt3__15dequeINS_12basic_stringIcNS_11char_traitsIcEENS_9allocatorIcEEEENS4_IS6_EEE19__back_spare_blocksB8ue170006Ev, symObjAddr: 0x683FC, symBinAddr: 0x100073DEC, symSize: 0xA0 }
  - { offsetInCU: 0x20464, offset: 0x2C758, size: 0x8, addend: 0x0, symName: __ZNSt3__16vectorIjNS_9allocatorIjEEE9push_backB8ue170006ERKj, symObjAddr: 0x6849C, symBinAddr: 0x100073E8C, symSize: 0x1FC }
  - { offsetInCU: 0x2049A, offset: 0x2C78E, size: 0x8, addend: 0x0, symName: __ZNSt3__16vectorIjNS_9allocatorIjEEE5beginB8ue170006Ev, symObjAddr: 0x68A04, symBinAddr: 0x1000743F4, symSize: 0x2B0 }
  - { offsetInCU: 0x204C2, offset: 0x2C7B6, size: 0x8, addend: 0x0, symName: __ZNSt3__16vectorIjNS_9allocatorIjEEE3endB8ue170006Ev, symObjAddr: 0x68CB4, symBinAddr: 0x1000746A4, symSize: 0x2B4 }
  - { offsetInCU: 0x204EA, offset: 0x2C7DE, size: 0x8, addend: 0x0, symName: __ZNSt3__16vectorIjNS_9allocatorIjEEE9__end_capB8ue170006Ev, symObjAddr: 0x68F68, symBinAddr: 0x100074958, symSize: 0x100 }
  - { offsetInCU: 0x2050F, offset: 0x2C803, size: 0x8, addend: 0x0, symName: __ZNSt3__16vectorIjNS_9allocatorIjEEE22__construct_one_at_endB8ue170006IJRKjEEEvDpOT_, symObjAddr: 0x69068, symBinAddr: 0x100074A58, symSize: 0x550 }
  - { offsetInCU: 0x20563, offset: 0x2C857, size: 0x8, addend: 0x0, symName: __ZNSt3__16vectorIjNS_9allocatorIjEEE21__push_back_slow_pathIRKjEEvOT_, symObjAddr: 0x695B8, symBinAddr: 0x100074FA8, symSize: 0x5B0 }
  - { offsetInCU: 0x205C7, offset: 0x2C8BB, size: 0x8, addend: 0x0, symName: __ZNSt3__117__compressed_pairIPjNS_9allocatorIjEEE5firstB8ue170006Ev, symObjAddr: 0x69B68, symBinAddr: 0x100075558, symSize: 0x124 }
  - { offsetInCU: 0x205EC, offset: 0x2C8E0, size: 0x8, addend: 0x0, symName: __ZNSt3__122__compressed_pair_elemIPjLi0ELb0EE5__getB8ue170006Ev, symObjAddr: 0x69C8C, symBinAddr: 0x10007567C, symSize: 0xAC }
  - { offsetInCU: 0x2062A, offset: 0x2C91E, size: 0x8, addend: 0x0, symName: __ZNSt3__16vectorIjNS_9allocatorIjEEE21_ConstructTransactionC1B8ue170006ERS3_m, symObjAddr: 0x69D38, symBinAddr: 0x100075728, symSize: 0x88 }
  - { offsetInCU: 0x20671, offset: 0x2C965, size: 0x8, addend: 0x0, symName: __ZNSt3__116allocator_traitsINS_9allocatorIjEEE9constructB8ue170006IjJRKjEvEEvRS2_PT_DpOT0_, symObjAddr: 0x69DC0, symBinAddr: 0x1000757B0, symSize: 0x8C }
  - { offsetInCU: 0x206C8, offset: 0x2C9BC, size: 0x8, addend: 0x0, symName: __ZNSt3__16vectorIjNS_9allocatorIjEEE21_ConstructTransactionD1B8ue170006Ev, symObjAddr: 0x69E4C, symBinAddr: 0x10007583C, symSize: 0x78 }
  - { offsetInCU: 0x206F1, offset: 0x2C9E5, size: 0x8, addend: 0x0, symName: __ZNSt3__16vectorIjNS_9allocatorIjEEE21_ConstructTransactionC2B8ue170006ERS3_m, symObjAddr: 0x69EC4, symBinAddr: 0x1000758B4, symSize: 0x3D8 }
  - { offsetInCU: 0x20738, offset: 0x2CA2C, size: 0x8, addend: 0x0, symName: __ZNKSt3__16vectorIjNS_9allocatorIjEEE19__annotate_increaseB8ue170006Em, symObjAddr: 0x6A29C, symBinAddr: 0x100075C8C, symSize: 0x44C }
  - { offsetInCU: 0x2076C, offset: 0x2CA60, size: 0x8, addend: 0x0, symName: __ZNSt3__19allocatorIjE9constructB8ue170006IjJRKjEEEvPT_DpOT0_, symObjAddr: 0x6A6E8, symBinAddr: 0x1000760D8, symSize: 0x1B8 }
  - { offsetInCU: 0x207C1, offset: 0x2CAB5, size: 0x8, addend: 0x0, symName: __ZNSt3__16vectorIjNS_9allocatorIjEEE21_ConstructTransactionD2B8ue170006Ev, symObjAddr: 0x6A8A0, symBinAddr: 0x100076290, symSize: 0x390 }
  - { offsetInCU: 0x207EA, offset: 0x2CADE, size: 0x8, addend: 0x0, symName: __ZNKSt3__16vectorIjNS_9allocatorIjEEE17__annotate_shrinkB8ue170006Em, symObjAddr: 0x6AC30, symBinAddr: 0x100076620, symSize: 0x360 }
  - { offsetInCU: 0x2081E, offset: 0x2CB12, size: 0x8, addend: 0x0, symName: __ZNKSt3__16vectorIjNS_9allocatorIjEEE11__recommendB8ue170006Em, symObjAddr: 0x6AF90, symBinAddr: 0x100076980, symSize: 0x45C }
  - { offsetInCU: 0x20879, offset: 0x2CB6D, size: 0x8, addend: 0x0, symName: __ZNSt3__114__split_bufferIjRNS_9allocatorIjEEEC1EmmS3_, symObjAddr: 0x6B3EC, symBinAddr: 0x100076DDC, symSize: 0x90 }
  - { offsetInCU: 0x208CE, offset: 0x2CBC2, size: 0x8, addend: 0x0, symName: __ZNSt3__114__split_bufferIjRNS_9allocatorIjEEED1Ev, symObjAddr: 0x6BCD8, symBinAddr: 0x1000776C8, symSize: 0x78 }
  - { offsetInCU: 0x208F9, offset: 0x2CBED, size: 0x8, addend: 0x0, symName: __ZNKSt3__16vectorIjNS_9allocatorIjEEE8max_sizeEv, symObjAddr: 0x6BD50, symBinAddr: 0x100077740, symSize: 0x3B8 }
  - { offsetInCU: 0x20921, offset: 0x2CC15, size: 0x8, addend: 0x0, symName: __ZNKSt3__16vectorIjNS_9allocatorIjEEE20__throw_length_errorB8ue170006Ev, symObjAddr: 0x6C108, symBinAddr: 0x100077AF8, symSize: 0x80 }
  - { offsetInCU: 0x20950, offset: 0x2CC44, size: 0x8, addend: 0x0, symName: __ZNSt3__116allocator_traitsINS_9allocatorIjEEE8max_sizeB8ue170006IS2_vEEmRKS2_, symObjAddr: 0x6C188, symBinAddr: 0x100077B78, symSize: 0x24 }
  - { offsetInCU: 0x2097E, offset: 0x2CC72, size: 0x8, addend: 0x0, symName: __ZNKSt3__16vectorIjNS_9allocatorIjEEE7__allocB8ue170006Ev, symObjAddr: 0x6C1AC, symBinAddr: 0x100077B9C, symSize: 0xE4 }
  - { offsetInCU: 0x209A3, offset: 0x2CC97, size: 0x8, addend: 0x0, symName: __ZNKSt3__19allocatorIjE8max_sizeB8ue170006Ev, symObjAddr: 0x6C290, symBinAddr: 0x100077C80, symSize: 0x4C }
  - { offsetInCU: 0x209C8, offset: 0x2CCBC, size: 0x8, addend: 0x0, symName: __ZNKSt3__117__compressed_pairIPjNS_9allocatorIjEEE6secondB8ue170006Ev, symObjAddr: 0x6C2DC, symBinAddr: 0x100077CCC, symSize: 0x108 }
  - { offsetInCU: 0x209ED, offset: 0x2CCE1, size: 0x8, addend: 0x0, symName: __ZNKSt3__122__compressed_pair_elemINS_9allocatorIjEELi1ELb1EE5__getB8ue170006Ev, symObjAddr: 0x6C3E4, symBinAddr: 0x100077DD4, symSize: 0x74 }
  - { offsetInCU: 0x20A12, offset: 0x2CD06, size: 0x8, addend: 0x0, symName: __ZNSt3__114__split_bufferIjRNS_9allocatorIjEEEC2EmmS3_, symObjAddr: 0x6C458, symBinAddr: 0x100077E48, symSize: 0x7D8 }
  - { offsetInCU: 0x20A8C, offset: 0x2CD80, size: 0x8, addend: 0x0, symName: __ZNSt3__117__compressed_pairIPjRNS_9allocatorIjEEEC1B8ue170006IDnS4_EEOT_OT0_, symObjAddr: 0x6CC30, symBinAddr: 0x100078620, symSize: 0x88 }
  - { offsetInCU: 0x20AE3, offset: 0x2CDD7, size: 0x8, addend: 0x0, symName: __ZNSt3__114__split_bufferIjRNS_9allocatorIjEEE7__allocB8ue170006Ev, symObjAddr: 0x6CF44, symBinAddr: 0x100078934, symSize: 0xE4 }
  - { offsetInCU: 0x20B08, offset: 0x2CDFC, size: 0x8, addend: 0x0, symName: __ZNSt3__114__split_bufferIjRNS_9allocatorIjEEE9__end_capB8ue170006Ev, symObjAddr: 0x6D028, symBinAddr: 0x100078A18, symSize: 0x100 }
  - { offsetInCU: 0x20B2D, offset: 0x2CE21, size: 0x8, addend: 0x0, symName: __ZNSt3__117__compressed_pairIPjRNS_9allocatorIjEEEC2B8ue170006IDnS4_EEOT_OT0_, symObjAddr: 0x6D128, symBinAddr: 0x100078B18, symSize: 0x198 }
  - { offsetInCU: 0x20B84, offset: 0x2CE78, size: 0x8, addend: 0x0, symName: __ZNSt3__122__compressed_pair_elemIRNS_9allocatorIjEELi1ELb0EEC2B8ue170006IS3_vEEOT_, symObjAddr: 0x6D2C0, symBinAddr: 0x100078CB0, symSize: 0xEC }
  - { offsetInCU: 0x20BC5, offset: 0x2CEB9, size: 0x8, addend: 0x0, symName: __ZNSt3__19allocatorIjE8allocateB8ue170006Em, symObjAddr: 0x6D3AC, symBinAddr: 0x100078D9C, symSize: 0xCC }
  - { offsetInCU: 0x20BF8, offset: 0x2CEEC, size: 0x8, addend: 0x0, symName: __ZNSt3__117__compressed_pairIPjRNS_9allocatorIjEEE6secondB8ue170006Ev, symObjAddr: 0x6D478, symBinAddr: 0x100078E68, symSize: 0x110 }
  - { offsetInCU: 0x20C1D, offset: 0x2CF11, size: 0x8, addend: 0x0, symName: __ZNSt3__122__compressed_pair_elemIRNS_9allocatorIjEELi1ELb0EE5__getB8ue170006Ev, symObjAddr: 0x6D588, symBinAddr: 0x100078F78, symSize: 0xD8 }
  - { offsetInCU: 0x20C42, offset: 0x2CF36, size: 0x8, addend: 0x0, symName: __ZNSt3__117__compressed_pairIPjRNS_9allocatorIjEEE5firstB8ue170006Ev, symObjAddr: 0x6D660, symBinAddr: 0x100079050, symSize: 0x124 }
  - { offsetInCU: 0x20C67, offset: 0x2CF5B, size: 0x8, addend: 0x0, symName: __ZNSt3__116reverse_iteratorIPjEC1B8ue170006ES1_, symObjAddr: 0x6DC2C, symBinAddr: 0x10007961C, symSize: 0x80 }
  - { offsetInCU: 0x20C9E, offset: 0x2CF92, size: 0x8, addend: 0x0, symName: __ZNKSt3__116reverse_iteratorIPjE4baseB8ue170006Ev, symObjAddr: 0x6DCAC, symBinAddr: 0x10007969C, symSize: 0xB0 }
  - { offsetInCU: 0x20CC3, offset: 0x2CFB7, size: 0x8, addend: 0x0, symName: __ZNKSt3__16vectorIjNS_9allocatorIjEEE14__annotate_newB8ue170006Em, symObjAddr: 0x6DF1C, symBinAddr: 0x10007990C, symSize: 0x360 }
  - { offsetInCU: 0x20D10, offset: 0x2D004, size: 0x8, addend: 0x0, symName: __ZNKSt3__111__move_loopINS_17_ClassicAlgPolicyEEclB8ue170006INS_16reverse_iteratorIPjEES6_S6_EENS_4pairIT_T1_EES8_T0_S9_, symObjAddr: 0x6FC3C, symBinAddr: 0x10007B62C, symSize: 0x4AC }
  - { offsetInCU: 0x20D8C, offset: 0x2D080, size: 0x8, addend: 0x0, symName: __ZNSt3__18_IterOpsINS_17_ClassicAlgPolicyEE11__iter_moveB8ue170006IRNS_16reverse_iteratorIPjEEEENS_9enable_ifIXsr12is_referenceIDTdeclsr3stdE7declvalIRT_EEEEE5valueEDTclsr3stdE4movedeclsr3stdE7declvalISA_EEEEE4typeEOS9_, symObjAddr: 0x70D34, symBinAddr: 0x10007C724, symSize: 0xB8 }
  - { offsetInCU: 0x20DB8, offset: 0x2D0AC, size: 0x8, addend: 0x0, symName: __ZNKSt3__116reverse_iteratorIPjEdeB8ue170006Ev, symObjAddr: 0x70DEC, symBinAddr: 0x10007C7DC, symSize: 0x184 }
  - { offsetInCU: 0x20DEB, offset: 0x2D0DF, size: 0x8, addend: 0x0, symName: __ZNSt3__116reverse_iteratorIPjEppB8ue170006Ev, symObjAddr: 0x70F70, symBinAddr: 0x10007C960, symSize: 0x1B0 }
  - { offsetInCU: 0x20E10, offset: 0x2D104, size: 0x8, addend: 0x0, symName: __ZNSt3__18_IterOpsINS_17_ClassicAlgPolicyEE25__validate_iter_referenceB8ue170006IRNS_16reverse_iteratorIPjEEEEvv, symObjAddr: 0x71120, symBinAddr: 0x10007CB10, symSize: 0x4 }
  - { offsetInCU: 0x20E2E, offset: 0x2D122, size: 0x8, addend: 0x0, symName: __ZNSt3__118__unwrap_iter_implINS_16reverse_iteratorIPjEELb0EE8__unwrapB8ue170006ES3_, symObjAddr: 0x71124, symBinAddr: 0x10007CB14, symSize: 0x274 }
  - { offsetInCU: 0x20E5A, offset: 0x2D14E, size: 0x8, addend: 0x0, symName: __ZNSt3__14pairINS_16reverse_iteratorIPjEES3_EC1B8ue170006IS3_S3_LPv0EEEOT_OT0_, symObjAddr: 0x71398, symBinAddr: 0x10007CD88, symSize: 0x88 }
  - { offsetInCU: 0x20EB7, offset: 0x2D1AB, size: 0x8, addend: 0x0, symName: __ZNSt3__14pairINS_16reverse_iteratorIPjEES3_EC2B8ue170006IS3_S3_LPv0EEEOT_OT0_, symObjAddr: 0x71420, symBinAddr: 0x10007CE10, symSize: 0xA0 }
  - { offsetInCU: 0x20F14, offset: 0x2D208, size: 0x8, addend: 0x0, symName: __ZNSt3__118__unwrap_iter_implINS_16reverse_iteratorIPjEELb0EE8__rewrapB8ue170006ES3_S3_, symObjAddr: 0x714C0, symBinAddr: 0x10007CEB0, symSize: 0x2E0 }
  - { offsetInCU: 0x20F4A, offset: 0x2D23E, size: 0x8, addend: 0x0, symName: __ZNSt3__116reverse_iteratorIPjEC2B8ue170006ES1_, symObjAddr: 0x717A0, symBinAddr: 0x10007D190, symSize: 0x10C }
  - { offsetInCU: 0x20F81, offset: 0x2D275, size: 0x8, addend: 0x0, symName: __ZNSt3__114__split_bufferIjRNS_9allocatorIjEEED2Ev, symObjAddr: 0x718AC, symBinAddr: 0x10007D29C, symSize: 0x16C }
  - { offsetInCU: 0x20FAC, offset: 0x2D2A0, size: 0x8, addend: 0x0, symName: __ZNSt3__114__split_bufferIjRNS_9allocatorIjEEE5clearB8ue170006Ev, symObjAddr: 0x71A18, symBinAddr: 0x10007D408, symSize: 0xB4 }
  - { offsetInCU: 0x20FD1, offset: 0x2D2C5, size: 0x8, addend: 0x0, symName: __ZNKSt3__114__split_bufferIjRNS_9allocatorIjEEE8capacityB8ue170006Ev, symObjAddr: 0x71ACC, symBinAddr: 0x10007D4BC, symSize: 0x144 }
  - { offsetInCU: 0x20FF6, offset: 0x2D2EA, size: 0x8, addend: 0x0, symName: __ZNSt3__114__split_bufferIjRNS_9allocatorIjEEE17__destruct_at_endB8ue170006EPj, symObjAddr: 0x71C10, symBinAddr: 0x10007D600, symSize: 0x74 }
  - { offsetInCU: 0x21029, offset: 0x2D31D, size: 0x8, addend: 0x0, symName: __ZNSt3__114__split_bufferIjRNS_9allocatorIjEEE17__destruct_at_endB8ue170006EPjNS_17integral_constantIbLb0EEE, symObjAddr: 0x71C84, symBinAddr: 0x10007D674, symSize: 0x224 }
  - { offsetInCU: 0x21069, offset: 0x2D35D, size: 0x8, addend: 0x0, symName: __ZNKSt3__114__split_bufferIjRNS_9allocatorIjEEE9__end_capB8ue170006Ev, symObjAddr: 0x71EA8, symBinAddr: 0x10007D898, symSize: 0x100 }
  - { offsetInCU: 0x2108E, offset: 0x2D382, size: 0x8, addend: 0x0, symName: __ZNKSt3__117__compressed_pairIPjRNS_9allocatorIjEEE5firstB8ue170006Ev, symObjAddr: 0x71FA8, symBinAddr: 0x10007D998, symSize: 0x124 }
  - { offsetInCU: 0x210B3, offset: 0x2D3A7, size: 0x8, addend: 0x0, symName: __ZNKSt3__111__wrap_iterIPjE4baseB8ue170006Ev, symObjAddr: 0x72F88, symBinAddr: 0x10007E978, symSize: 0xAC }
  - { offsetInCU: 0x210D8, offset: 0x2D3CC, size: 0x8, addend: 0x0, symName: __ZNKSt3__111__wrap_iterIPjEplB8ue170006El, symObjAddr: 0x73034, symBinAddr: 0x10007EA24, symSize: 0x258 }
  - { offsetInCU: 0x2111F, offset: 0x2D413, size: 0x8, addend: 0x0, symName: __ZNKSt3__17greaterIjEclB8ue170006ERKjS3_, symObjAddr: 0x7328C, symBinAddr: 0x10007EC7C, symSize: 0x13C }
  - { offsetInCU: 0x21162, offset: 0x2D456, size: 0x8, addend: 0x0, symName: __ZNKSt3__111__wrap_iterIPjEdeB8ue170006Ev, symObjAddr: 0x733C8, symBinAddr: 0x10007EDB8, symSize: 0xF4 }
  - { offsetInCU: 0x21187, offset: 0x2D47B, size: 0x8, addend: 0x0, symName: __ZNSt3__111__wrap_iterIPjEmmB8ue170006Ev, symObjAddr: 0x734BC, symBinAddr: 0x10007EEAC, symSize: 0x1A8 }
  - { offsetInCU: 0x211AC, offset: 0x2D4A0, size: 0x8, addend: 0x0, symName: __ZNSt3__18_IterOpsINS_17_ClassicAlgPolicyEE11__iter_moveB8ue170006IRNS_11__wrap_iterIPjEEEENS_9enable_ifIXsr12is_referenceIDTdeclsr3stdE7declvalIRT_EEEEE5valueEDTclsr3stdE4movedeclsr3stdE7declvalISA_EEEEE4typeEOS9_, symObjAddr: 0x73664, symBinAddr: 0x10007F054, symSize: 0xB8 }
  - { offsetInCU: 0x211D8, offset: 0x2D4CC, size: 0x8, addend: 0x0, symName: __ZNSt3__111__wrap_iterIPjEpLB8ue170006El, symObjAddr: 0x7371C, symBinAddr: 0x10007F10C, symSize: 0x228 }
  - { offsetInCU: 0x2120B, offset: 0x2D4FF, size: 0x8, addend: 0x0, symName: __ZNSt3__18_IterOpsINS_17_ClassicAlgPolicyEE25__validate_iter_referenceB8ue170006IRNS_11__wrap_iterIPjEEEEvv, symObjAddr: 0x73944, symBinAddr: 0x10007F334, symSize: 0x4 }
  - { offsetInCU: 0x21229, offset: 0x2D51D, size: 0x8, addend: 0x0, symName: __ZNSt3__16vectorIjNS_9allocatorIjEEE11__make_iterB8ue170006EPj, symObjAddr: 0x73948, symBinAddr: 0x10007F338, symSize: 0x244 }
  - { offsetInCU: 0x2125F, offset: 0x2D553, size: 0x8, addend: 0x0, symName: __ZNSt3__111__wrap_iterIPjEC1B8ue170006ES1_, symObjAddr: 0x73B8C, symBinAddr: 0x10007F57C, symSize: 0x80 }
  - { offsetInCU: 0x21296, offset: 0x2D58A, size: 0x8, addend: 0x0, symName: __ZNSt3__111__wrap_iterIPjEC2B8ue170006ES1_, symObjAddr: 0x73C0C, symBinAddr: 0x10007F5FC, symSize: 0xC8 }
  - { offsetInCU: 0x212CD, offset: 0x2D5C1, size: 0x8, addend: 0x0, symName: __ZNKSt3__14lessIjEclB8ue170006ERKjS3_, symObjAddr: 0x74E60, symBinAddr: 0x100080850, symSize: 0x13C }
  - { offsetInCU: 0x21310, offset: 0x2D604, size: 0x8, addend: 0x0, symName: __ZNKSt3__16vectorIjNS_9allocatorIjEEE5frontB8ue170006Ev, symObjAddr: 0x74F9C, symBinAddr: 0x10008098C, symSize: 0xF4 }
  - { offsetInCU: 0x21335, offset: 0x2D629, size: 0x8, addend: 0x0, symName: __ZNSt3__16vectorIjNS_9allocatorIjEEE8pop_backEv, symObjAddr: 0x75418, symBinAddr: 0x100080E08, symSize: 0x150 }
  - { offsetInCU: 0x2135C, offset: 0x2D650, size: 0x8, addend: 0x0, symName: __ZNSt3__111__wrap_iterIPjEppB8ue170006Ev, symObjAddr: 0x766B0, symBinAddr: 0x1000820A0, symSize: 0x1A8 }
  - { offsetInCU: 0x21381, offset: 0x2D675, size: 0x8, addend: 0x0, symName: __ZNSt3__16vectorIjNS_9allocatorIjEEE17__destruct_at_endB8ue170006EPj, symObjAddr: 0x76858, symBinAddr: 0x100082248, symSize: 0x90 }
  - { offsetInCU: 0x213C4, offset: 0x2D6B8, size: 0x8, addend: 0x0, symName: __ZNSt3__16vectorIP7ZombiesNS_9allocatorIS2_EEE8pop_backEv, symObjAddr: 0x780A4, symBinAddr: 0x100083A94, symSize: 0x150 }
  - { offsetInCU: 0x213EB, offset: 0x2D6DF, size: 0x8, addend: 0x0, symName: __ZNSt3__111__wrap_iterIPP7ZombiesEppB8ue170006Ev, symObjAddr: 0x79294, symBinAddr: 0x100084C84, symSize: 0x1A8 }
  - { offsetInCU: 0x21410, offset: 0x2D704, size: 0x8, addend: 0x0, symName: __ZNSt3__16vectorIP7ZombiesNS_9allocatorIS2_EEE17__destruct_at_endB8ue170006EPS2_, symObjAddr: 0x7943C, symBinAddr: 0x100084E2C, symSize: 0x90 }
  - { offsetInCU: 0x21453, offset: 0x2D747, size: 0x8, addend: 0x0, symName: __ZNSt3__16vectorI7ZombiesNS_9allocatorIS1_EEE9push_backB8ue170006ERKS1_, symObjAddr: 0x794CC, symBinAddr: 0x100084EBC, symSize: 0x1FC }
  - { offsetInCU: 0x21489, offset: 0x2D77D, size: 0x8, addend: 0x0, symName: __ZNSt3__16vectorI7ZombiesNS_9allocatorIS1_EEE5beginB8ue170006Ev, symObjAddr: 0x79A34, symBinAddr: 0x100085424, symSize: 0x2B0 }
  - { offsetInCU: 0x214B1, offset: 0x2D7A5, size: 0x8, addend: 0x0, symName: __ZNSt3__16vectorI7ZombiesNS_9allocatorIS1_EEE3endB8ue170006Ev, symObjAddr: 0x79CE4, symBinAddr: 0x1000856D4, symSize: 0x2B4 }
  - { offsetInCU: 0x214D9, offset: 0x2D7CD, size: 0x8, addend: 0x0, symName: __ZNSt3__16vectorI7ZombiesNS_9allocatorIS1_EEE9__end_capB8ue170006Ev, symObjAddr: 0x79F98, symBinAddr: 0x100085988, symSize: 0x100 }
  - { offsetInCU: 0x214FE, offset: 0x2D7F2, size: 0x8, addend: 0x0, symName: __ZNSt3__16vectorI7ZombiesNS_9allocatorIS1_EEE22__construct_one_at_endB8ue170006IJRKS1_EEEvDpOT_, symObjAddr: 0x7A098, symBinAddr: 0x100085A88, symSize: 0x550 }
  - { offsetInCU: 0x21552, offset: 0x2D846, size: 0x8, addend: 0x0, symName: __ZNSt3__16vectorI7ZombiesNS_9allocatorIS1_EEE21__push_back_slow_pathIRKS1_EEvOT_, symObjAddr: 0x7A5E8, symBinAddr: 0x100085FD8, symSize: 0x5B0 }
  - { offsetInCU: 0x215B6, offset: 0x2D8AA, size: 0x8, addend: 0x0, symName: __ZNSt3__117__compressed_pairIP7ZombiesNS_9allocatorIS1_EEE5firstB8ue170006Ev, symObjAddr: 0x7AB98, symBinAddr: 0x100086588, symSize: 0x124 }
  - { offsetInCU: 0x215F4, offset: 0x2D8E8, size: 0x8, addend: 0x0, symName: __ZNSt3__16vectorI7ZombiesNS_9allocatorIS1_EEE21_ConstructTransactionC1B8ue170006ERS4_m, symObjAddr: 0x7ACBC, symBinAddr: 0x1000866AC, symSize: 0x88 }
  - { offsetInCU: 0x2163B, offset: 0x2D92F, size: 0x8, addend: 0x0, symName: __ZNSt3__16vectorI7ZombiesNS_9allocatorIS1_EEE21_ConstructTransactionD1B8ue170006Ev, symObjAddr: 0x7AD44, symBinAddr: 0x100086734, symSize: 0x78 }
  - { offsetInCU: 0x21664, offset: 0x2D958, size: 0x8, addend: 0x0, symName: __ZNSt3__16vectorI7ZombiesNS_9allocatorIS1_EEE21_ConstructTransactionC2B8ue170006ERS4_m, symObjAddr: 0x7ADBC, symBinAddr: 0x1000867AC, symSize: 0x3E0 }
  - { offsetInCU: 0x216AB, offset: 0x2D99F, size: 0x8, addend: 0x0, symName: __ZNKSt3__16vectorI7ZombiesNS_9allocatorIS1_EEE19__annotate_increaseB8ue170006Em, symObjAddr: 0x7B19C, symBinAddr: 0x100086B8C, symSize: 0x46C }
  - { offsetInCU: 0x216DF, offset: 0x2D9D3, size: 0x8, addend: 0x0, symName: __ZNSt3__16vectorI7ZombiesNS_9allocatorIS1_EEE21_ConstructTransactionD2B8ue170006Ev, symObjAddr: 0x7B608, symBinAddr: 0x100086FF8, symSize: 0x390 }
  - { offsetInCU: 0x21708, offset: 0x2D9FC, size: 0x8, addend: 0x0, symName: __ZNKSt3__16vectorI7ZombiesNS_9allocatorIS1_EEE17__annotate_shrinkB8ue170006Em, symObjAddr: 0x7B998, symBinAddr: 0x100087388, symSize: 0x378 }
  - { offsetInCU: 0x2173C, offset: 0x2DA30, size: 0x8, addend: 0x0, symName: __ZNKSt3__16vectorI7ZombiesNS_9allocatorIS1_EEE11__recommendB8ue170006Em, symObjAddr: 0x7BD10, symBinAddr: 0x100087700, symSize: 0x45C }
  - { offsetInCU: 0x21797, offset: 0x2DA8B, size: 0x8, addend: 0x0, symName: __ZNSt3__114__split_bufferI7ZombiesRNS_9allocatorIS1_EEEC1EmmS4_, symObjAddr: 0x7C16C, symBinAddr: 0x100087B5C, symSize: 0x90 }
  - { offsetInCU: 0x217EC, offset: 0x2DAE0, size: 0x8, addend: 0x0, symName: __ZNSt3__114__split_bufferI7ZombiesRNS_9allocatorIS1_EEED1Ev, symObjAddr: 0x7CA58, symBinAddr: 0x100088448, symSize: 0x78 }
  - { offsetInCU: 0x21817, offset: 0x2DB0B, size: 0x8, addend: 0x0, symName: __ZNKSt3__16vectorI7ZombiesNS_9allocatorIS1_EEE8max_sizeEv, symObjAddr: 0x7CAD0, symBinAddr: 0x1000884C0, symSize: 0x3B8 }
  - { offsetInCU: 0x2183F, offset: 0x2DB33, size: 0x8, addend: 0x0, symName: __ZNKSt3__16vectorI7ZombiesNS_9allocatorIS1_EEE20__throw_length_errorB8ue170006Ev, symObjAddr: 0x7CE88, symBinAddr: 0x100088878, symSize: 0x80 }
  - { offsetInCU: 0x21864, offset: 0x2DB58, size: 0x8, addend: 0x0, symName: __ZNKSt3__16vectorI7ZombiesNS_9allocatorIS1_EEE7__allocB8ue170006Ev, symObjAddr: 0x7CF08, symBinAddr: 0x1000888F8, symSize: 0xE4 }
  - { offsetInCU: 0x21889, offset: 0x2DB7D, size: 0x8, addend: 0x0, symName: __ZNKSt3__117__compressed_pairIP7ZombiesNS_9allocatorIS1_EEE6secondB8ue170006Ev, symObjAddr: 0x7CFEC, symBinAddr: 0x1000889DC, symSize: 0x108 }
  - { offsetInCU: 0x218AE, offset: 0x2DBA2, size: 0x8, addend: 0x0, symName: __ZNKSt3__122__compressed_pair_elemINS_9allocatorI7ZombiesEELi1ELb1EE5__getB8ue170006Ev, symObjAddr: 0x7D0F4, symBinAddr: 0x100088AE4, symSize: 0x74 }
  - { offsetInCU: 0x218D3, offset: 0x2DBC7, size: 0x8, addend: 0x0, symName: __ZNSt3__114__split_bufferI7ZombiesRNS_9allocatorIS1_EEEC2EmmS4_, symObjAddr: 0x7D168, symBinAddr: 0x100088B58, symSize: 0x7E8 }
  - { offsetInCU: 0x2194D, offset: 0x2DC41, size: 0x8, addend: 0x0, symName: __ZNSt3__117__compressed_pairIP7ZombiesRNS_9allocatorIS1_EEEC1B8ue170006IDnS5_EEOT_OT0_, symObjAddr: 0x7D950, symBinAddr: 0x100089340, symSize: 0x88 }
  - { offsetInCU: 0x219A4, offset: 0x2DC98, size: 0x8, addend: 0x0, symName: __ZNSt3__114__split_bufferI7ZombiesRNS_9allocatorIS1_EEE7__allocB8ue170006Ev, symObjAddr: 0x7DC64, symBinAddr: 0x100089654, symSize: 0xE4 }
  - { offsetInCU: 0x219C9, offset: 0x2DCBD, size: 0x8, addend: 0x0, symName: __ZNSt3__114__split_bufferI7ZombiesRNS_9allocatorIS1_EEE9__end_capB8ue170006Ev, symObjAddr: 0x7DD48, symBinAddr: 0x100089738, symSize: 0x100 }
  - { offsetInCU: 0x219EE, offset: 0x2DCE2, size: 0x8, addend: 0x0, symName: __ZNSt3__117__compressed_pairIP7ZombiesRNS_9allocatorIS1_EEEC2B8ue170006IDnS5_EEOT_OT0_, symObjAddr: 0x7DE48, symBinAddr: 0x100089838, symSize: 0x198 }
  - { offsetInCU: 0x21A45, offset: 0x2DD39, size: 0x8, addend: 0x0, symName: __ZNSt3__122__compressed_pair_elemIRNS_9allocatorI7ZombiesEELi1ELb0EEC2B8ue170006IS4_vEEOT_, symObjAddr: 0x7DFE0, symBinAddr: 0x1000899D0, symSize: 0xEC }
  - { offsetInCU: 0x21A86, offset: 0x2DD7A, size: 0x8, addend: 0x0, symName: __ZNSt3__117__compressed_pairIP7ZombiesRNS_9allocatorIS1_EEE6secondB8ue170006Ev, symObjAddr: 0x7E0CC, symBinAddr: 0x100089ABC, symSize: 0x110 }
  - { offsetInCU: 0x21AAB, offset: 0x2DD9F, size: 0x8, addend: 0x0, symName: __ZNSt3__122__compressed_pair_elemIRNS_9allocatorI7ZombiesEELi1ELb0EE5__getB8ue170006Ev, symObjAddr: 0x7E1DC, symBinAddr: 0x100089BCC, symSize: 0xD8 }
  - { offsetInCU: 0x21AD0, offset: 0x2DDC4, size: 0x8, addend: 0x0, symName: __ZNSt3__117__compressed_pairIP7ZombiesRNS_9allocatorIS1_EEE5firstB8ue170006Ev, symObjAddr: 0x7E2B4, symBinAddr: 0x100089CA4, symSize: 0x124 }
  - { offsetInCU: 0x21AF5, offset: 0x2DDE9, size: 0x8, addend: 0x0, symName: __ZNSt3__116reverse_iteratorIP7ZombiesEC1B8ue170006ES2_, symObjAddr: 0x7E9B0, symBinAddr: 0x10008A3A0, symSize: 0x80 }
  - { offsetInCU: 0x21B2C, offset: 0x2DE20, size: 0x8, addend: 0x0, symName: __ZNKSt3__116reverse_iteratorIP7ZombiesE4baseB8ue170006Ev, symObjAddr: 0x7EA30, symBinAddr: 0x10008A420, symSize: 0xB0 }
  - { offsetInCU: 0x21B51, offset: 0x2DE45, size: 0x8, addend: 0x0, symName: __ZNKSt3__16vectorI7ZombiesNS_9allocatorIS1_EEE14__annotate_newB8ue170006Em, symObjAddr: 0x7ECA0, symBinAddr: 0x10008A690, symSize: 0x378 }
  - { offsetInCU: 0x21B85, offset: 0x2DE79, size: 0x8, addend: 0x0, symName: __ZNSt3__129_AllocatorDestroyRangeReverseINS_9allocatorI7ZombiesEENS_16reverse_iteratorIPS2_EEEC1B8ue170006ERS3_RS6_S9_, symObjAddr: 0x7F254, symBinAddr: 0x10008AC44, symSize: 0x90 }
  - { offsetInCU: 0x21BE0, offset: 0x2DED4, size: 0x8, addend: 0x0, symName: __ZNSt3__116allocator_traitsINS_9allocatorI7ZombiesEEE9constructB8ue170006IS2_JS2_EvEEvRS3_PT_DpOT0_, symObjAddr: 0x7F380, symBinAddr: 0x10008AD70, symSize: 0x8C }
  - { offsetInCU: 0x21C37, offset: 0x2DF2B, size: 0x8, addend: 0x0, symName: __ZNKSt3__116reverse_iteratorIP7ZombiesEdeB8ue170006Ev, symObjAddr: 0x7F478, symBinAddr: 0x10008AE68, symSize: 0x184 }
  - { offsetInCU: 0x21C6A, offset: 0x2DF5E, size: 0x8, addend: 0x0, symName: __ZNSt3__116reverse_iteratorIP7ZombiesEppB8ue170006Ev, symObjAddr: 0x7F5FC, symBinAddr: 0x10008AFEC, symSize: 0x1B0 }
  - { offsetInCU: 0x21C8F, offset: 0x2DF83, size: 0x8, addend: 0x0, symName: __ZNSt3__128__exception_guard_exceptionsINS_29_AllocatorDestroyRangeReverseINS_9allocatorI7ZombiesEENS_16reverse_iteratorIPS3_EEEEE10__completeB8ue170006Ev, symObjAddr: 0x7F7AC, symBinAddr: 0x10008B19C, symSize: 0xD8 }
  - { offsetInCU: 0x21CB4, offset: 0x2DFA8, size: 0x8, addend: 0x0, symName: __ZNSt3__128__exception_guard_exceptionsINS_29_AllocatorDestroyRangeReverseINS_9allocatorI7ZombiesEENS_16reverse_iteratorIPS3_EEEEED1B8ue170006Ev, symObjAddr: 0x7F884, symBinAddr: 0x10008B274, symSize: 0x78 }
  - { offsetInCU: 0x21CDD, offset: 0x2DFD1, size: 0x8, addend: 0x0, symName: __ZNSt3__128__exception_guard_exceptionsINS_29_AllocatorDestroyRangeReverseINS_9allocatorI7ZombiesEENS_16reverse_iteratorIPS3_EEEEEC1B8ue170006ES8_, symObjAddr: 0x7F8FC, symBinAddr: 0x10008B2EC, symSize: 0x84 }
  - { offsetInCU: 0x21D15, offset: 0x2E009, size: 0x8, addend: 0x0, symName: __ZNSt3__128__exception_guard_exceptionsINS_29_AllocatorDestroyRangeReverseINS_9allocatorI7ZombiesEENS_16reverse_iteratorIPS3_EEEEEC2B8ue170006ES8_, symObjAddr: 0x7F980, symBinAddr: 0x10008B370, symSize: 0xF8 }
  - { offsetInCU: 0x21D4D, offset: 0x2E041, size: 0x8, addend: 0x0, symName: __ZNSt3__129_AllocatorDestroyRangeReverseINS_9allocatorI7ZombiesEENS_16reverse_iteratorIPS2_EEEC2B8ue170006ERS3_RS6_S9_, symObjAddr: 0x7FA78, symBinAddr: 0x10008B468, symSize: 0x20C }
  - { offsetInCU: 0x21DA3, offset: 0x2E097, size: 0x8, addend: 0x0, symName: __ZNSt3__19allocatorI7ZombiesE9constructB8ue170006IS1_JS1_EEEvPT_DpOT0_, symObjAddr: 0x7FC84, symBinAddr: 0x10008B674, symSize: 0xEC }
  - { offsetInCU: 0x21DF8, offset: 0x2E0EC, size: 0x8, addend: 0x0, symName: __ZN7ZombiesC1EOS_, symObjAddr: 0x7FD70, symBinAddr: 0x10008B760, symSize: 0x80 }
  - { offsetInCU: 0x21E2C, offset: 0x2E120, size: 0x8, addend: 0x0, symName: __ZN7ZombiesC2EOS_, symObjAddr: 0x7FDF0, symBinAddr: 0x10008B7E0, symSize: 0x124 }
  - { offsetInCU: 0x21E65, offset: 0x2E159, size: 0x8, addend: 0x0, symName: __ZNSt3__119__to_address_helperINS_16reverse_iteratorIP7ZombiesEEvE6__callB8ue170006ERKS4_, symObjAddr: 0x7FF14, symBinAddr: 0x10008B904, symSize: 0x70 }
  - { offsetInCU: 0x21E88, offset: 0x2E17C, size: 0x8, addend: 0x0, symName: __ZNKSt3__116reverse_iteratorIP7ZombiesEptB8ue170006Ev, symObjAddr: 0x7FF84, symBinAddr: 0x10008B974, symSize: 0x6C }
  - { offsetInCU: 0x21EAD, offset: 0x2E1A1, size: 0x8, addend: 0x0, symName: __ZNSt3__128__exception_guard_exceptionsINS_29_AllocatorDestroyRangeReverseINS_9allocatorI7ZombiesEENS_16reverse_iteratorIPS3_EEEEED2B8ue170006Ev, symObjAddr: 0x7FFF0, symBinAddr: 0x10008B9E0, symSize: 0x17C }
  - { offsetInCU: 0x21ED6, offset: 0x2E1CA, size: 0x8, addend: 0x0, symName: __ZNKSt3__129_AllocatorDestroyRangeReverseINS_9allocatorI7ZombiesEENS_16reverse_iteratorIPS2_EEEclB8ue170006Ev, symObjAddr: 0x8016C, symBinAddr: 0x10008BB5C, symSize: 0x418 }
  - { offsetInCU: 0x21EFC, offset: 0x2E1F0, size: 0x8, addend: 0x0, symName: __ZNSt3__116reverse_iteratorINS0_IP7ZombiesEEEC1B8ue170006ES3_, symObjAddr: 0x80728, symBinAddr: 0x10008C118, symSize: 0x29C }
  - { offsetInCU: 0x21F38, offset: 0x2E22C, size: 0x8, addend: 0x0, symName: __ZNSt3__116reverse_iteratorINS0_IP7ZombiesEEEppB8ue170006Ev, symObjAddr: 0x80D54, symBinAddr: 0x10008C744, symSize: 0x100 }
  - { offsetInCU: 0x21F5D, offset: 0x2E251, size: 0x8, addend: 0x0, symName: __ZNKSt3__116reverse_iteratorINS0_IP7ZombiesEEE4baseB8ue170006Ev, symObjAddr: 0x80E54, symBinAddr: 0x10008C844, symSize: 0x258 }
  - { offsetInCU: 0x21F88, offset: 0x2E27C, size: 0x8, addend: 0x0, symName: __ZNSt3__119__to_address_helperINS_16reverse_iteratorINS1_IP7ZombiesEEEEvE6__callB8ue170006ERKS5_, symObjAddr: 0x810AC, symBinAddr: 0x10008CA9C, symSize: 0x70 }
  - { offsetInCU: 0x21FAB, offset: 0x2E29F, size: 0x8, addend: 0x0, symName: __ZNKSt3__116reverse_iteratorINS0_IP7ZombiesEEEptB8ue170006Ev, symObjAddr: 0x8111C, symBinAddr: 0x10008CB0C, symSize: 0x6C }
  - { offsetInCU: 0x21FD0, offset: 0x2E2C4, size: 0x8, addend: 0x0, symName: __ZNKSt3__116reverse_iteratorINS0_IP7ZombiesEEEdeB8ue170006Ev, symObjAddr: 0x81188, symBinAddr: 0x10008CB78, symSize: 0x2C4 }
  - { offsetInCU: 0x22008, offset: 0x2E2FC, size: 0x8, addend: 0x0, symName: __ZNSt3__116reverse_iteratorIP7ZombiesEmmB8ue170006Ev, symObjAddr: 0x8144C, symBinAddr: 0x10008CE3C, symSize: 0x1B0 }
  - { offsetInCU: 0x2202D, offset: 0x2E321, size: 0x8, addend: 0x0, symName: __ZNSt3__116reverse_iteratorINS0_IP7ZombiesEEEC2B8ue170006ES3_, symObjAddr: 0x815FC, symBinAddr: 0x10008CFEC, symSize: 0x284 }
  - { offsetInCU: 0x22069, offset: 0x2E35D, size: 0x8, addend: 0x0, symName: __ZNSt3__116reverse_iteratorIP7ZombiesEC2B8ue170006ES2_, symObjAddr: 0x81880, symBinAddr: 0x10008D270, symSize: 0x10C }
  - { offsetInCU: 0x220A0, offset: 0x2E394, size: 0x8, addend: 0x0, symName: __ZNSt3__114__split_bufferI7ZombiesRNS_9allocatorIS1_EEED2Ev, symObjAddr: 0x8198C, symBinAddr: 0x10008D37C, symSize: 0x16C }
  - { offsetInCU: 0x220CB, offset: 0x2E3BF, size: 0x8, addend: 0x0, symName: __ZNSt3__114__split_bufferI7ZombiesRNS_9allocatorIS1_EEE5clearB8ue170006Ev, symObjAddr: 0x81AF8, symBinAddr: 0x10008D4E8, symSize: 0xB4 }
  - { offsetInCU: 0x220F0, offset: 0x2E3E4, size: 0x8, addend: 0x0, symName: __ZNKSt3__114__split_bufferI7ZombiesRNS_9allocatorIS1_EEE8capacityB8ue170006Ev, symObjAddr: 0x81BAC, symBinAddr: 0x10008D59C, symSize: 0x144 }
  - { offsetInCU: 0x22115, offset: 0x2E409, size: 0x8, addend: 0x0, symName: __ZNSt3__114__split_bufferI7ZombiesRNS_9allocatorIS1_EEE17__destruct_at_endB8ue170006EPS1_, symObjAddr: 0x81CF0, symBinAddr: 0x10008D6E0, symSize: 0x74 }
  - { offsetInCU: 0x22148, offset: 0x2E43C, size: 0x8, addend: 0x0, symName: __ZNSt3__114__split_bufferI7ZombiesRNS_9allocatorIS1_EEE17__destruct_at_endB8ue170006EPS1_NS_17integral_constantIbLb0EEE, symObjAddr: 0x81D64, symBinAddr: 0x10008D754, symSize: 0x224 }
  - { offsetInCU: 0x22188, offset: 0x2E47C, size: 0x8, addend: 0x0, symName: __ZNKSt3__114__split_bufferI7ZombiesRNS_9allocatorIS1_EEE9__end_capB8ue170006Ev, symObjAddr: 0x81F88, symBinAddr: 0x10008D978, symSize: 0x100 }
  - { offsetInCU: 0x221AD, offset: 0x2E4A1, size: 0x8, addend: 0x0, symName: __ZNKSt3__117__compressed_pairIP7ZombiesRNS_9allocatorIS1_EEE5firstB8ue170006Ev, symObjAddr: 0x82088, symBinAddr: 0x10008DA78, symSize: 0x124 }
  - { offsetInCU: 0x221D2, offset: 0x2E4C6, size: 0x8, addend: 0x0, symName: __ZNKSt3__111__wrap_iterIP7ZombiesE4baseB8ue170006Ev, symObjAddr: 0x82F64, symBinAddr: 0x10008E954, symSize: 0xAC }
  - { offsetInCU: 0x221F7, offset: 0x2E4EB, size: 0x8, addend: 0x0, symName: __ZNKSt3__111__wrap_iterIP7ZombiesEplB8ue170006El, symObjAddr: 0x83010, symBinAddr: 0x10008EA00, symSize: 0x258 }
  - { offsetInCU: 0x2223E, offset: 0x2E532, size: 0x8, addend: 0x0, symName: __ZNK11LeastActiveclERK7ZombiesS2_, symObjAddr: 0x83268, symBinAddr: 0x10008EC58, symSize: 0x3B4 }
  - { offsetInCU: 0x2227F, offset: 0x2E573, size: 0x8, addend: 0x0, symName: __ZNKSt3__111__wrap_iterIP7ZombiesEdeB8ue170006Ev, symObjAddr: 0x8361C, symBinAddr: 0x10008F00C, symSize: 0xF4 }
  - { offsetInCU: 0x222A4, offset: 0x2E598, size: 0x8, addend: 0x0, symName: __ZNSt3__111__wrap_iterIP7ZombiesEmmB8ue170006Ev, symObjAddr: 0x83710, symBinAddr: 0x10008F100, symSize: 0x1A8 }
  - { offsetInCU: 0x222C9, offset: 0x2E5BD, size: 0x8, addend: 0x0, symName: __ZNSt3__18_IterOpsINS_17_ClassicAlgPolicyEE11__iter_moveB8ue170006IRNS_11__wrap_iterIP7ZombiesEEEENS_9enable_ifIXsr12is_referenceIDTdeclsr3stdE7declvalIRT_EEEEE5valueEDTclsr3stdE4movedeclsr3stdE7declvalISB_EEEEE4typeEOSA_, symObjAddr: 0x838B8, symBinAddr: 0x10008F2A8, symSize: 0xB8 }
  - { offsetInCU: 0x222F5, offset: 0x2E5E9, size: 0x8, addend: 0x0, symName: __ZN7ZombiesaSEOS_, symObjAddr: 0x83970, symBinAddr: 0x10008F360, symSize: 0x1A4 }
  - { offsetInCU: 0x22324, offset: 0x2E618, size: 0x8, addend: 0x0, symName: __ZNSt3__111__wrap_iterIP7ZombiesEpLB8ue170006El, symObjAddr: 0x83B14, symBinAddr: 0x10008F504, symSize: 0x230 }
  - { offsetInCU: 0x22357, offset: 0x2E64B, size: 0x8, addend: 0x0, symName: __ZNSt3__18_IterOpsINS_17_ClassicAlgPolicyEE25__validate_iter_referenceB8ue170006IRNS_11__wrap_iterIP7ZombiesEEEEvv, symObjAddr: 0x83D44, symBinAddr: 0x10008F734, symSize: 0x4 }
  - { offsetInCU: 0x22375, offset: 0x2E669, size: 0x8, addend: 0x0, symName: __ZNSt3__112basic_stringIcNS_11char_traitsIcEENS_9allocatorIcEEEaSB8ue170006EOS5_, symObjAddr: 0x83D48, symBinAddr: 0x10008F738, symSize: 0x104 }
  - { offsetInCU: 0x223A9, offset: 0x2E69D, size: 0x8, addend: 0x0, symName: __ZNSt3__112basic_stringIcNS_11char_traitsIcEENS_9allocatorIcEEE13__move_assignB8ue170006ERS5_NS_17integral_constantIbLb1EEE, symObjAddr: 0x83E4C, symBinAddr: 0x10008F83C, symSize: 0x480 }
  - { offsetInCU: 0x223EE, offset: 0x2E6E2, size: 0x8, addend: 0x0, symName: __ZNSt3__116allocator_traitsINS_9allocatorIcEEE10deallocateB8ue170006ERS2_Pcm, symObjAddr: 0x842CC, symBinAddr: 0x10008FCBC, symSize: 0x34 }
  - { offsetInCU: 0x22430, offset: 0x2E724, size: 0x8, addend: 0x0, symName: __ZNSt3__112basic_stringIcNS_11char_traitsIcEENS_9allocatorIcEEE7__allocB8ue170006Ev, symObjAddr: 0x84300, symBinAddr: 0x10008FCF0, symSize: 0xDC }
  - { offsetInCU: 0x22455, offset: 0x2E749, size: 0x8, addend: 0x0, symName: __ZNKSt3__112basic_stringIcNS_11char_traitsIcEENS_9allocatorIcEEE14__get_long_capB8ue170006Ev, symObjAddr: 0x843DC, symBinAddr: 0x10008FDCC, symSize: 0x1D0 }
  - { offsetInCU: 0x2247A, offset: 0x2E76E, size: 0x8, addend: 0x0, symName: __ZNSt3__112basic_stringIcNS_11char_traitsIcEENS_9allocatorIcEEE19__move_assign_allocB8ue170006ERS5_, symObjAddr: 0x845AC, symBinAddr: 0x10008FF9C, symSize: 0xBC }
  - { offsetInCU: 0x224AE, offset: 0x2E7A2, size: 0x8, addend: 0x0, symName: __ZNSt3__19allocatorIcE10deallocateB8ue170006EPcm, symObjAddr: 0x84668, symBinAddr: 0x100090058, symSize: 0x78 }
  - { offsetInCU: 0x224EF, offset: 0x2E7E3, size: 0x8, addend: 0x0, symName: __ZNSt3__117__compressed_pairINS_12basic_stringIcNS_11char_traitsIcEENS_9allocatorIcEEE5__repES5_E6secondB8ue170006Ev, symObjAddr: 0x846E0, symBinAddr: 0x1000900D0, symSize: 0x108 }
  - { offsetInCU: 0x22514, offset: 0x2E808, size: 0x8, addend: 0x0, symName: __ZNSt3__122__compressed_pair_elemINS_9allocatorIcEELi1ELb1EE5__getB8ue170006Ev, symObjAddr: 0x847E8, symBinAddr: 0x1000901D8, symSize: 0x74 }
  - { offsetInCU: 0x22539, offset: 0x2E82D, size: 0x8, addend: 0x0, symName: __ZNSt3__112basic_stringIcNS_11char_traitsIcEENS_9allocatorIcEEE19__move_assign_allocB8ue170006ERS5_NS_17integral_constantIbLb1EEE, symObjAddr: 0x8485C, symBinAddr: 0x10009024C, symSize: 0xA4 }
  - { offsetInCU: 0x22579, offset: 0x2E86D, size: 0x8, addend: 0x0, symName: __ZNSt3__16vectorI7ZombiesNS_9allocatorIS1_EEE11__make_iterB8ue170006EPS1_, symObjAddr: 0x84900, symBinAddr: 0x1000902F0, symSize: 0x244 }
  - { offsetInCU: 0x225AF, offset: 0x2E8A3, size: 0x8, addend: 0x0, symName: __ZNSt3__111__wrap_iterIP7ZombiesEC1B8ue170006ES2_, symObjAddr: 0x84B44, symBinAddr: 0x100090534, symSize: 0x80 }
  - { offsetInCU: 0x225E6, offset: 0x2E8DA, size: 0x8, addend: 0x0, symName: __ZNSt3__111__wrap_iterIP7ZombiesEC2B8ue170006ES2_, symObjAddr: 0x84BC4, symBinAddr: 0x1000905B4, symSize: 0xC8 }
  - { offsetInCU: 0x2261D, offset: 0x2E911, size: 0x8, addend: 0x0, symName: __ZNSt3__16vectorI7ZombiesNS_9allocatorIS1_EEE8pop_backEv, symObjAddr: 0x85014, symBinAddr: 0x100090A04, symSize: 0x150 }
  - { offsetInCU: 0x22644, offset: 0x2E938, size: 0x8, addend: 0x0, symName: __ZNSt3__111__wrap_iterIP7ZombiesEppB8ue170006Ev, symObjAddr: 0x8615C, symBinAddr: 0x100091B4C, symSize: 0x1A8 }
  - { offsetInCU: 0x22669, offset: 0x2E95D, size: 0x8, addend: 0x0, symName: __ZNSt3__16vectorI7ZombiesNS_9allocatorIS1_EEE17__destruct_at_endB8ue170006EPS1_, symObjAddr: 0x86304, symBinAddr: 0x100091CF4, symSize: 0x90 }
  - { offsetInCU: 0x226AC, offset: 0x2E9A0, size: 0x8, addend: 0x0, symName: __ZNSt3__114priority_queueI7ZombiesNS_6vectorIS1_NS_9allocatorIS1_EEEE11MostActive2EC2B8ue170006Ev, symObjAddr: 0x86394, symBinAddr: 0x100091D84, symSize: 0x78 }
  - { offsetInCU: 0x226D5, offset: 0x2E9C9, size: 0x8, addend: 0x0, symName: __ZNKSt3__16vectorI7ZombiesNS_9allocatorIS1_EEE5frontB8ue170006Ev, symObjAddr: 0x8640C, symBinAddr: 0x100091DFC, symSize: 0xF4 }
  - { offsetInCU: 0x226FA, offset: 0x2E9EE, size: 0x8, addend: 0x0, symName: __ZNK11MostActive2clERK7ZombiesS2_, symObjAddr: 0x87588, symBinAddr: 0x100092F78, symSize: 0x3B4 }
  - { offsetInCU: 0x2273B, offset: 0x2EA2F, size: 0x8, addend: 0x0, symName: __ZNK10MostActiveclERK7ZombiesS2_, symObjAddr: 0x89CA8, symBinAddr: 0x100095698, symSize: 0x3B4 }
  - { offsetInCU: 0x2277C, offset: 0x2EA70, size: 0x8, addend: 0x0, symName: __ZNSt3__114priority_queueI7ZombiesNS_6vectorIS1_NS_9allocatorIS1_EEEE12LeastActive2EC2B8ue170006Ev, symObjAddr: 0x8B340, symBinAddr: 0x100096D30, symSize: 0x78 }
  - { offsetInCU: 0x227A5, offset: 0x2EA99, size: 0x8, addend: 0x0, symName: __ZNK12LeastActive2clERK7ZombiesS2_, symObjAddr: 0x8C440, symBinAddr: 0x100097E30, symSize: 0x3B4 }
...
